Archive member included to satisfy reference by file (symbol)

./build/libshell.a(console.o)
                              /tmp/ccaAoCVE.o (shell_init)
./build/libshell.a(parser.o)  ./build/libshell.a(console.o) (parser)
./build/libshell.a(cmd.o)     ./build/libshell.a(console.o) (commands)
./build/libapp.a(app.o)       /tmp/ccaAoCVE.o (app_init)
./build/libapp.a(tcpecho.o)   ./build/libshell.a(cmd.o) (cmd_echo)
./build/libapp.a(ping.o)      ./build/libshell.a(cmd.o) (cmd_ping)
./build/libapp.a(cmdnet.o)    ./build/libshell.a(cmd.o) (cmd_net)
./build/libapp.a(cmdduktape.o)
                              ./build/libshell.a(cmd.o) (cmd_duk)
./build/libapp.a(duktape.o)   ./build/libapp.a(cmdduktape.o) (duk_push_lstring)
./build/libapp.a(cmdfs.o)     ./build/libshell.a(cmd.o) (cmd_dir)
./build/libsys.a(sys.o)       ./build/libapp.a(ping.o) (debug_flags)
./build/libsys.a(util.o)      ./build/libapp.a(cmdfs.o) (dump_frame)
./build/libsys.a(xmodem.o)    ./build/libsys.a(sys.o) (xmodemReceive)
./build/libsys.a(crc16.o)     ./build/libsys.a(xmodem.o) (crc16_ccitt)
./build/liblwip.a(network.o)  /tmp/ccaAoCVE.o (LwIP_Init)
./build/liblwip.a(sys_arch.o)
                              ./build/liblwip.a(network.o) (sys_sem_new)
./build/liblwip.a(sockets.o)  ./build/libapp.a(tcpecho.o) (lwip_accept)
./build/liblwip.a(tcpip.o)    ./build/liblwip.a(sockets.o) (lock_tcpip_core)
./build/liblwip.a(def.o)      ./build/libapp.a(tcpecho.o) (lwip_htons)
./build/liblwip.a(inet_chksum.o)
                              ./build/libapp.a(ping.o) (inet_chksum)
./build/liblwip.a(init.o)     ./build/liblwip.a(tcpip.o) (lwip_init)
./build/liblwip.a(mem.o)      ./build/liblwip.a(init.o) (mem_init)
./build/liblwip.a(memp.o)     ./build/liblwip.a(init.o) (memp_init)
./build/liblwip.a(netif.o)    ./build/liblwip.a(network.o) (netif_list)
./build/liblwip.a(pbuf.o)     ./build/liblwip.a(sockets.o) (pbuf_alloc)
./build/liblwip.a(raw.o)      ./build/liblwip.a(netif.o) (raw_netif_ip_addr_changed)
./build/liblwip.a(tcp.o)      ./build/liblwip.a(pbuf.o) (tcp_active_pcbs)
./build/liblwip.a(tcp_in.o)   ./build/liblwip.a(tcp.o) (tcp_input_pcb)
./build/liblwip.a(tcp_out.o)  ./build/liblwip.a(tcp.o) (tcp_send_fin)
./build/liblwip.a(timeouts.o)
                              ./build/liblwip.a(tcp.o) (tcp_timer_needed)
./build/liblwip.a(udp.o)      ./build/liblwip.a(init.o) (udp_init)
./build/liblwip.a(dhcp.o)     ./build/liblwip.a(timeouts.o) (dhcp_coarse_tmr)
./build/liblwip.a(etharp.o)   ./build/liblwip.a(timeouts.o) (etharp_tmr)
./build/liblwip.a(icmp.o)     ./build/liblwip.a(udp.o) (icmp_dest_unreach)
./build/liblwip.a(ip4.o)      ./build/liblwip.a(raw.o) (ip4_route)
./build/liblwip.a(ip4_addr.o)
                              ./build/liblwip.a(netif.o) (ip_addr_any)
./build/liblwip.a(ip4_frag.o)
                              ./build/liblwip.a(timeouts.o) (ip_reass_tmr)
./build/liblwip.a(ppp.o)      ./build/libsys.a(sys.o) (ppp_set_auth)
./build/liblwip.a(pppos.o)    ./build/liblwip.a(ppp.o) (memp_PPPOS_PCB)
./build/liblwip.a(upap.o)     ./build/liblwip.a(ppp.o) (pap_protent)
./build/liblwip.a(utils.o)    ./build/liblwip.a(upap.o) (ppp_slprintf)
./build/liblwip.a(vj.o)       ./build/liblwip.a(ppp.o) (vj_compress_init)
./build/liblwip.a(ethernet.o)
                              ./build/liblwip.a(etharp.o) (ethbroadcast)
./build/liblwip.a(api_lib.o)  ./build/liblwip.a(sockets.o) (netconn_new_with_proto_and_callback)
./build/liblwip.a(api_msg.o)  ./build/liblwip.a(api_lib.o) (netconn_aborted)
./build/liblwip.a(err.o)      ./build/liblwip.a(sockets.o) (err_to_errno)
./build/liblwip.a(netbuf.o)   ./build/liblwip.a(sockets.o) (netbuf_new)
./build/liblwip.a(ip.o)       ./build/liblwip.a(raw.o) (ip_data)
./build/liblwip.a(auth.o)     ./build/liblwip.a(ppp.o) (link_terminated)
./build/liblwip.a(chap-new.o)
                              ./build/liblwip.a(auth.o) (chap_auth_peer)
./build/liblwip.a(ipcp.o)     ./build/liblwip.a(ppp.o) (ipcp_protent)
./build/liblwip.a(lcp.o)      ./build/liblwip.a(ppp.o) (lcp_protent)
./build/liblwip.a(magic.o)    ./build/liblwip.a(ppp.o) (magic_init)
./build/liblwip.a(md5.o)      ./build/liblwip.a(magic.o) (md5_starts)
./build/liblwip.a(chap-md5.o)
                              ./build/liblwip.a(chap-new.o) (md5_digest)
./build/liblwip.a(fsm.o)      ./build/liblwip.a(ipcp.o) (fsm_init)
./build/libfreertos.a(AsyncIO.o)
                              ./build/libshell.a(console.o) (lAsyncIORegisterCallback)
./build/libfreertos.a(AsyncIOSerial.o)
                              ./build/libsys.a(sys.o) (lAsyncIOSerialOpen)
./build/libfreertos.a(croutine.o)
                              /tmp/ccaAoCVE.o (vCoRoutineSchedule)
./build/libfreertos.a(list.o)
                              ./build/libfreertos.a(croutine.o) (vListInitialise)
./build/libfreertos.a(queue.o)
                              ./build/libshell.a(console.o) (xQueueCreate)
./build/libfreertos.a(tasks.o)
                              /tmp/ccaAoCVE.o (xTaskGenericCreate)
./build/libfreertos.a(port.o)
                              ./build/libfreertos.a(tasks.o) (pxPortInitialiseStack)
./build/libfreertos.a(heap_3.o)
                              ./build/libfreertos.a(croutine.o) (pvPortMalloc)
./build/libfreertos.a(crhook.o)
                              /tmp/ccaAoCVE.o (vStartHookCoRoutines)
./build/libfreertos.a(ParTest.o)
                              /tmp/ccaAoCVE.o (vParTestInitialise)
./build/libfatfs.a(fs_port.o)
                              /tmp/ccaAoCVE.o (fs_init)
./build/libfatfs.a(ff.o)      ./build/libfatfs.a(fs_port.o) (f_mount)
./build/libfatfs.a(cc950.o)   ./build/libfatfs.a(ff.o) (ff_convert)
./build/libfatfs.a(fattime.o)
                              ./build/libfatfs.a(ff.o) (get_fattime)
./build/libfatfs.a(diskio.o)  ./build/libfatfs.a(ff.o) (disk_status)
./build/libfatfs.a(ramdisk.o)
                              ./build/libfatfs.a(diskio.o) (RAM_disk_status)
/usr/lib/gcc/arm-linux-gnueabihf/4.9/libgcc.a(_udivsi3.o)
                              ./build/libapp.a(duktape.o) (__aeabi_uidiv)
/usr/lib/gcc/arm-linux-gnueabihf/4.9/libgcc.a(_divsi3.o)
                              ./build/libapp.a(duktape.o) (__aeabi_idiv)
/usr/lib/gcc/arm-linux-gnueabihf/4.9/libgcc.a(_arm_addsubdf3.o)
                              ./build/libapp.a(duktape.o) (__aeabi_l2d)
/usr/lib/gcc/arm-linux-gnueabihf/4.9/libgcc.a(_dvmd_lnx.o)
                              /usr/lib/gcc/arm-linux-gnueabihf/4.9/libgcc.a(_udivsi3.o) (__aeabi_idiv0)
/usr/lib/gcc/arm-linux-gnueabihf/4.9/libgcc.a(_fixdfdi.o)
                              ./build/libapp.a(duktape.o) (__aeabi_d2lz)
/usr/lib/gcc/arm-linux-gnueabihf/4.9/libgcc.a(_fixunsdfdi.o)
                              ./build/libapp.a(duktape.o) (__aeabi_d2ulz)
/usr/lib/arm-linux-gnueabihf/libc_nonshared.a(elf-init.oS)
                              /usr/lib/gcc/arm-linux-gnueabihf/4.9/../../../arm-linux-gnueabihf/crt1.o (__libc_csu_init)
/usr/lib/arm-linux-gnueabihf/libc_nonshared.a(atexit.oS)
                              ./build/libshell.a(console.o) (atexit)

Allocating common symbols
Common symbol       size              file

pxOverflowDelayedCoRoutineList
                    0x4               ./build/libfreertos.a(croutine.o)
ppp                 0x4               ./build/libsys.a(sys.o)
memp_memory_PPP_PCB_base
                    0x1427            ./build/liblwip.a(ppp.o)
pcStatsString       0x32              ./build/libfreertos.a(tasks.o)
pxReadyCoRoutineLists
                    0x28              ./build/libfreertos.a(croutine.o)
xDelayedTaskList2   0x14              ./build/libfreertos.a(tasks.o)
xDelayedCoRoutineList2
                    0x14              ./build/libfreertos.a(croutine.o)
ppp_tx_bcnt         0x4               ./build/libsys.a(sys.o)
netif_list          0x4               ./build/liblwip.a(netif.o)
tcp_active_pcbs_changed
                    0x1               ./build/liblwip.a(tcp.o)
history             0x2000            ./build/libshell.a(console.o)
memp_memory_REASSDATA_base
                    0xa3              ./build/liblwip.a(memp.o)
ppp_netif           0x40              ./build/libsys.a(sys.o)
hShellTask          0x4               ./build/libshell.a(console.o)
memp_memory_TCP_PCB_LISTEN_base
                    0x103             ./build/liblwip.a(memp.o)
args                0x34d             ./build/libshell.a(console.o)
netif_default       0x4               ./build/liblwip.a(netif.o)
memp_memory_PBUF_POOL_base
                    0x11d03           ./build/liblwip.a(memp.o)
udp_pcbs            0x4               ./build/liblwip.a(udp.o)
pcTraceBufferEnd    0x4               ./build/libfreertos.a(tasks.o)
memp_memory_NETCONN_base
                    0x233             ./build/liblwip.a(memp.o)
memp_memory_UDP_PCB_base
                    0x83              ./build/liblwip.a(memp.o)
ip_data             0x18              ./build/liblwip.a(ip.o)
memp_memory_PPPOS_PCB_base
                    0x63              ./build/liblwip.a(pppos.o)
pcTraceBuffer       0x4               ./build/libfreertos.a(tasks.o)
ram_heap            0x2013            ./build/liblwip.a(mem.o)
ppp_tx_pcnt         0x4               ./build/libsys.a(sys.o)
xSuspendedTaskList  0x14              ./build/libfreertos.a(tasks.o)
saved_attributes    0x3c              ./build/libshell.a(console.o)
memp_memory_TCP_PCB_base
                    0x30f             ./build/liblwip.a(memp.o)
pxReadyTasksLists   0xc8              ./build/libfreertos.a(tasks.o)
tcp_active_pcbs     0x4               ./build/liblwip.a(tcp.o)
xPendingReadyCoRoutineList
                    0x14              ./build/libfreertos.a(croutine.o)
pbuf_free_ooseq_pending
                    0x1               ./build/liblwip.a(pbuf.o)
dhcp_rx_options_given
                    0x8               ./build/liblwip.a(dhcp.o)
memp_memory_FRAG_PBUF_base
                    0x16b             ./build/liblwip.a(memp.o)
xDelayedTaskList1   0x14              ./build/libfreertos.a(tasks.o)
tcp_input_pcb       0x4               ./build/liblwip.a(tcp_in.o)
memp_memory_PBUF_base
                    0x1e3             ./build/liblwip.a(memp.o)
pxOverflowDelayedTaskList
                    0x4               ./build/libfreertos.a(tasks.o)
xDelayedCoRoutineList1
                    0x14              ./build/libfreertos.a(croutine.o)
_p_flag             0x4               ./build/libshell.a(parser.o)
_p_curquote         0x1               ./build/libshell.a(parser.o)
tcp_bound_pcbs      0x4               ./build/liblwip.a(tcp.o)
tcp_ticks           0x4               ./build/liblwip.a(tcp.o)
_p_tokpos           0x4               ./build/libshell.a(parser.o)
lock_tcpip_core     0x4               ./build/liblwip.a(tcpip.o)
xTasksWaitingTermination
                    0x14              ./build/libfreertos.a(tasks.o)
_p_state            0x4               ./build/libshell.a(parser.o)
xPendingReadyList   0x14              ./build/libfreertos.a(tasks.o)
memp_memory_NETBUF_base
                    0x23              ./build/liblwip.a(memp.o)
tcp_tw_pcbs         0x4               ./build/liblwip.a(tcp.o)
memp_memory_RAW_PCB_base
                    0x73              ./build/liblwip.a(memp.o)
tcp_listen_pcbs     0x4               ./build/liblwip.a(tcp.o)
pxDelayedTaskList   0x4               ./build/libfreertos.a(tasks.o)
pxDelayedCoRoutineList
                    0x4               ./build/libfreertos.a(croutine.o)
ppp_rx_bcnt         0x4               ./build/libsys.a(sys.o)
pcTraceBufferStart  0x4               ./build/libfreertos.a(tasks.o)
memp_memory_TCPIP_MSG_INPKT_base
                    0x103             ./build/liblwip.a(memp.o)
memp_memory_SYS_TIMEOUT_base
                    0x143             ./build/liblwip.a(memp.o)
memp_memory_TCP_SEG_base
                    0x143             ./build/liblwip.a(memp.o)
curr_cmd            0x4               ./build/libshell.a(console.o)
pcStatusString      0x32              ./build/libfreertos.a(tasks.o)
memp_memory_TCPIP_MSG_API_base
                    0x103             ./build/liblwip.a(memp.o)
dhcp_rx_options_val
                    0x20              ./build/liblwip.a(dhcp.o)
netconn_aborted     0x1               ./build/liblwip.a(api_msg.o)
ppp_rx_pcnt         0x4               ./build/libsys.a(sys.o)

Discarded input sections

 .note.GNU-stack
                0x00000000        0x0 /usr/lib/gcc/arm-linux-gnueabihf/4.9/../../../arm-linux-gnueabihf/crt1.o
 .gnu_debuglink
                0x00000000        0xc /usr/lib/gcc/arm-linux-gnueabihf/4.9/../../../arm-linux-gnueabihf/crt1.o
 .note.GNU-stack
                0x00000000        0x0 /usr/lib/gcc/arm-linux-gnueabihf/4.9/../../../arm-linux-gnueabihf/crti.o
 .gnu_debuglink
                0x00000000        0xc /usr/lib/gcc/arm-linux-gnueabihf/4.9/../../../arm-linux-gnueabihf/crti.o
 .note.GNU-stack
                0x00000000        0x0 /usr/lib/gcc/arm-linux-gnueabihf/4.9/crtbegin.o
 .note.GNU-stack
                0x00000000        0x0 /tmp/ccaAoCVE.o
 .note.GNU-stack
                0x00000000        0x0 ./build/libshell.a(console.o)
 .note.GNU-stack
                0x00000000        0x0 ./build/libshell.a(parser.o)
 .note.GNU-stack
                0x00000000        0x0 ./build/libshell.a(cmd.o)
 .note.GNU-stack
                0x00000000        0x0 ./build/libapp.a(app.o)
 .note.GNU-stack
                0x00000000        0x0 ./build/libapp.a(tcpecho.o)
 .note.GNU-stack
                0x00000000        0x0 ./build/libapp.a(ping.o)
 .note.GNU-stack
                0x00000000        0x0 ./build/libapp.a(cmdnet.o)
 .note.GNU-stack
                0x00000000        0x0 ./build/libapp.a(cmdduktape.o)
 .note.GNU-stack
                0x00000000        0x0 ./build/libapp.a(duktape.o)
 .note.GNU-stack
                0x00000000        0x0 ./build/libapp.a(cmdfs.o)
 .note.GNU-stack
                0x00000000        0x0 ./build/libsys.a(sys.o)
 .note.GNU-stack
                0x00000000        0x0 ./build/libsys.a(util.o)
 .note.GNU-stack
                0x00000000        0x0 ./build/libsys.a(xmodem.o)
 .note.GNU-stack
                0x00000000        0x0 ./build/libsys.a(crc16.o)
 .note.GNU-stack
                0x00000000        0x0 ./build/liblwip.a(network.o)
 .note.GNU-stack
                0x00000000        0x0 ./build/liblwip.a(sys_arch.o)
 .note.GNU-stack
                0x00000000        0x0 ./build/liblwip.a(sockets.o)
 .note.GNU-stack
                0x00000000        0x0 ./build/liblwip.a(tcpip.o)
 .note.GNU-stack
                0x00000000        0x0 ./build/liblwip.a(def.o)
 .note.GNU-stack
                0x00000000        0x0 ./build/liblwip.a(inet_chksum.o)
 .note.GNU-stack
                0x00000000        0x0 ./build/liblwip.a(init.o)
 .note.GNU-stack
                0x00000000        0x0 ./build/liblwip.a(mem.o)
 .note.GNU-stack
                0x00000000        0x0 ./build/liblwip.a(memp.o)
 .note.GNU-stack
                0x00000000        0x0 ./build/liblwip.a(netif.o)
 .note.GNU-stack
                0x00000000        0x0 ./build/liblwip.a(pbuf.o)
 .note.GNU-stack
                0x00000000        0x0 ./build/liblwip.a(raw.o)
 .note.GNU-stack
                0x00000000        0x0 ./build/liblwip.a(tcp.o)
 .note.GNU-stack
                0x00000000        0x0 ./build/liblwip.a(tcp_in.o)
 .note.GNU-stack
                0x00000000        0x0 ./build/liblwip.a(tcp_out.o)
 .note.GNU-stack
                0x00000000        0x0 ./build/liblwip.a(timeouts.o)
 .note.GNU-stack
                0x00000000        0x0 ./build/liblwip.a(udp.o)
 .note.GNU-stack
                0x00000000        0x0 ./build/liblwip.a(dhcp.o)
 .note.GNU-stack
                0x00000000        0x0 ./build/liblwip.a(etharp.o)
 .note.GNU-stack
                0x00000000        0x0 ./build/liblwip.a(icmp.o)
 .note.GNU-stack
                0x00000000        0x0 ./build/liblwip.a(ip4.o)
 .note.GNU-stack
                0x00000000        0x0 ./build/liblwip.a(ip4_addr.o)
 .note.GNU-stack
                0x00000000        0x0 ./build/liblwip.a(ip4_frag.o)
 .note.GNU-stack
                0x00000000        0x0 ./build/liblwip.a(ppp.o)
 .note.GNU-stack
                0x00000000        0x0 ./build/liblwip.a(pppos.o)
 .note.GNU-stack
                0x00000000        0x0 ./build/liblwip.a(upap.o)
 .note.GNU-stack
                0x00000000        0x0 ./build/liblwip.a(utils.o)
 .note.GNU-stack
                0x00000000        0x0 ./build/liblwip.a(vj.o)
 .note.GNU-stack
                0x00000000        0x0 ./build/liblwip.a(ethernet.o)
 .note.GNU-stack
                0x00000000        0x0 ./build/liblwip.a(api_lib.o)
 .note.GNU-stack
                0x00000000        0x0 ./build/liblwip.a(api_msg.o)
 .note.GNU-stack
                0x00000000        0x0 ./build/liblwip.a(err.o)
 .note.GNU-stack
                0x00000000        0x0 ./build/liblwip.a(netbuf.o)
 .note.GNU-stack
                0x00000000        0x0 ./build/liblwip.a(ip.o)
 .note.GNU-stack
                0x00000000        0x0 ./build/liblwip.a(auth.o)
 .note.GNU-stack
                0x00000000        0x0 ./build/liblwip.a(chap-new.o)
 .note.GNU-stack
                0x00000000        0x0 ./build/liblwip.a(ipcp.o)
 .note.GNU-stack
                0x00000000        0x0 ./build/liblwip.a(lcp.o)
 .note.GNU-stack
                0x00000000        0x0 ./build/liblwip.a(magic.o)
 .note.GNU-stack
                0x00000000        0x0 ./build/liblwip.a(md5.o)
 .note.GNU-stack
                0x00000000        0x0 ./build/liblwip.a(chap-md5.o)
 .note.GNU-stack
                0x00000000        0x0 ./build/liblwip.a(fsm.o)
 .note.GNU-stack
                0x00000000        0x0 ./build/libfreertos.a(AsyncIO.o)
 .note.GNU-stack
                0x00000000        0x0 ./build/libfreertos.a(AsyncIOSerial.o)
 .note.GNU-stack
                0x00000000        0x0 ./build/libfreertos.a(croutine.o)
 .note.GNU-stack
                0x00000000        0x0 ./build/libfreertos.a(list.o)
 .note.GNU-stack
                0x00000000        0x0 ./build/libfreertos.a(queue.o)
 .note.GNU-stack
                0x00000000        0x0 ./build/libfreertos.a(tasks.o)
 .note.GNU-stack
                0x00000000        0x0 ./build/libfreertos.a(port.o)
 .note.GNU-stack
                0x00000000        0x0 ./build/libfreertos.a(heap_3.o)
 .note.GNU-stack
                0x00000000        0x0 ./build/libfreertos.a(crhook.o)
 .note.GNU-stack
                0x00000000        0x0 ./build/libfreertos.a(ParTest.o)
 .note.GNU-stack
                0x00000000        0x0 ./build/libfatfs.a(fs_port.o)
 .note.GNU-stack
                0x00000000        0x0 ./build/libfatfs.a(ff.o)
 .note.GNU-stack
                0x00000000        0x0 ./build/libfatfs.a(cc950.o)
 .note.GNU-stack
                0x00000000        0x0 ./build/libfatfs.a(fattime.o)
 .note.GNU-stack
                0x00000000        0x0 ./build/libfatfs.a(diskio.o)
 .note.GNU-stack
                0x00000000        0x0 ./build/libfatfs.a(ramdisk.o)
 .note.GNU-stack
                0x00000000        0x0 /usr/lib/gcc/arm-linux-gnueabihf/4.9/libgcc.a(_udivsi3.o)
 .note.GNU-stack
                0x00000000        0x0 /usr/lib/gcc/arm-linux-gnueabihf/4.9/libgcc.a(_divsi3.o)
 .note.GNU-stack
                0x00000000        0x0 /usr/lib/gcc/arm-linux-gnueabihf/4.9/libgcc.a(_arm_addsubdf3.o)
 .note.GNU-stack
                0x00000000        0x0 /usr/lib/gcc/arm-linux-gnueabihf/4.9/libgcc.a(_dvmd_lnx.o)
 .note.GNU-stack
                0x00000000        0x0 /usr/lib/gcc/arm-linux-gnueabihf/4.9/libgcc.a(_fixdfdi.o)
 .note.GNU-stack
                0x00000000        0x0 /usr/lib/gcc/arm-linux-gnueabihf/4.9/libgcc.a(_fixunsdfdi.o)
 .note.GNU-stack
                0x00000000        0x0 /usr/lib/arm-linux-gnueabihf/libc_nonshared.a(elf-init.oS)
 .note.GNU-stack
                0x00000000        0x0 /usr/lib/arm-linux-gnueabihf/libc_nonshared.a(atexit.oS)
 .note.GNU-stack
                0x00000000        0x0 /usr/lib/gcc/arm-linux-gnueabihf/4.9/crtend.o
 .note.GNU-stack
                0x00000000        0x0 /usr/lib/gcc/arm-linux-gnueabihf/4.9/../../../arm-linux-gnueabihf/crtn.o
 .gnu_debuglink
                0x00000000        0xc /usr/lib/gcc/arm-linux-gnueabihf/4.9/../../../arm-linux-gnueabihf/crtn.o

Memory Configuration

Name             Origin             Length             Attributes
*default*        0x00000000         0xffffffff

Linker script and memory map

LOAD /usr/lib/gcc/arm-linux-gnueabihf/4.9/../../../arm-linux-gnueabihf/crt1.o
LOAD /usr/lib/gcc/arm-linux-gnueabihf/4.9/../../../arm-linux-gnueabihf/crti.o
LOAD /usr/lib/gcc/arm-linux-gnueabihf/4.9/crtbegin.o
LOAD /tmp/ccaAoCVE.o
LOAD ./build/libshell.a
LOAD ./build/libapp.a
LOAD ./build/libsys.a
LOAD ./build/liblwip.a
LOAD ./build/libfreertos.a
LOAD ./build/libfatfs.a
LOAD /usr/lib/gcc/arm-linux-gnueabihf/4.9/../../../arm-linux-gnueabihf/libpthread.so
START GROUP
LOAD /lib/arm-linux-gnueabihf/libpthread.so.0
LOAD /usr/lib/arm-linux-gnueabihf/libpthread_nonshared.a
END GROUP
LOAD /usr/lib/gcc/arm-linux-gnueabihf/4.9/../../../arm-linux-gnueabihf/libm.so
LOAD /usr/lib/gcc/arm-linux-gnueabihf/4.9/libgcc.a
LOAD /usr/lib/gcc/arm-linux-gnueabihf/4.9/libgcc_s.so
START GROUP
LOAD /usr/lib/gcc/arm-linux-gnueabihf/4.9/libgcc_s.so.1
LOAD /usr/lib/gcc/arm-linux-gnueabihf/4.9/libgcc.a
END GROUP
LOAD /usr/lib/gcc/arm-linux-gnueabihf/4.9/../../../arm-linux-gnueabihf/libc.so
START GROUP
LOAD /lib/arm-linux-gnueabihf/libc.so.6
LOAD /usr/lib/arm-linux-gnueabihf/libc_nonshared.a
LOAD /lib/arm-linux-gnueabihf/ld-linux-armhf.so.3
END GROUP
LOAD /usr/lib/gcc/arm-linux-gnueabihf/4.9/libgcc.a
LOAD /usr/lib/gcc/arm-linux-gnueabihf/4.9/libgcc_s.so
START GROUP
LOAD /usr/lib/gcc/arm-linux-gnueabihf/4.9/libgcc_s.so.1
LOAD /usr/lib/gcc/arm-linux-gnueabihf/4.9/libgcc.a
END GROUP
LOAD /usr/lib/gcc/arm-linux-gnueabihf/4.9/crtend.o
LOAD /usr/lib/gcc/arm-linux-gnueabihf/4.9/../../../arm-linux-gnueabihf/crtn.o
                0x00010000                PROVIDE (__executable_start, 0x10000)
                0x00010134                . = (0x10000 + SIZEOF_HEADERS)

.interp         0x00010134       0x19
 *(.interp)
 .interp        0x00010134       0x19 /usr/lib/gcc/arm-linux-gnueabihf/4.9/../../../arm-linux-gnueabihf/crt1.o

.note.ABI-tag   0x00010150       0x20
 .note.ABI-tag  0x00010150       0x20 /usr/lib/gcc/arm-linux-gnueabihf/4.9/../../../arm-linux-gnueabihf/crt1.o

.note.gnu.build-id
                0x00010170       0x24
 *(.note.gnu.build-id)
 .note.gnu.build-id
                0x00010170       0x24 linker stubs

.hash
 *(.hash)

.gnu.hash       0x00010194      0x3f8
 *(.gnu.hash)
 .gnu.hash      0x00010194      0x3f8 /usr/lib/gcc/arm-linux-gnueabihf/4.9/../../../arm-linux-gnueabihf/crt1.o

.dynsym         0x0001058c      0x7e0
 *(.dynsym)
 .dynsym        0x0001058c      0x7e0 /usr/lib/gcc/arm-linux-gnueabihf/4.9/../../../arm-linux-gnueabihf/crt1.o

.dynstr         0x00010d6c      0x4b4
 *(.dynstr)
 .dynstr        0x00010d6c      0x4b4 /usr/lib/gcc/arm-linux-gnueabihf/4.9/../../../arm-linux-gnueabihf/crt1.o

.gnu.version    0x00011220       0xfc
 *(.gnu.version)
 .gnu.version   0x00011220       0xfc /usr/lib/gcc/arm-linux-gnueabihf/4.9/../../../arm-linux-gnueabihf/crt1.o

.gnu.version_d  0x0001131c        0x0
 *(.gnu.version_d)
 .gnu.version_d
                0x0001131c        0x0 /usr/lib/gcc/arm-linux-gnueabihf/4.9/../../../arm-linux-gnueabihf/crt1.o

.gnu.version_r  0x0001131c       0x70
 *(.gnu.version_r)
 .gnu.version_r
                0x0001131c       0x70 /usr/lib/gcc/arm-linux-gnueabihf/4.9/../../../arm-linux-gnueabihf/crt1.o

.rel.dyn        0x0001138c       0x30
 *(.rel.init)
 *(.rel.text .rel.text.* .rel.gnu.linkonce.t.*)
 *(.rel.fini)
 *(.rel.rodata .rel.rodata.* .rel.gnu.linkonce.r.*)
 *(.rel.data.rel.ro .rel.data.rel.ro.* .rel.gnu.linkonce.d.rel.ro.*)
 *(.rel.data .rel.data.* .rel.gnu.linkonce.d.*)
 *(.rel.tdata .rel.tdata.* .rel.gnu.linkonce.td.*)
 *(.rel.tbss .rel.tbss.* .rel.gnu.linkonce.tb.*)
 *(.rel.ctors)
 *(.rel.dtors)
 *(.rel.got)
 .rel.got       0x0001138c        0x8 /usr/lib/gcc/arm-linux-gnueabihf/4.9/../../../arm-linux-gnueabihf/crt1.o
 *(.rel.bss .rel.bss.* .rel.gnu.linkonce.b.*)
 .rel.bss       0x00011394       0x28 /usr/lib/gcc/arm-linux-gnueabihf/4.9/../../../arm-linux-gnueabihf/crt1.o
                0x000113bc                PROVIDE (__rel_iplt_start, .)
 *(.rel.iplt)
 .rel.iplt      0x000113bc        0x0 /usr/lib/gcc/arm-linux-gnueabihf/4.9/../../../arm-linux-gnueabihf/crt1.o
                0x000113bc                PROVIDE (__rel_iplt_end, .)

.rela.dyn       0x000113bc        0x0
 *(.rela.init)
 *(.rela.text .rela.text.* .rela.gnu.linkonce.t.*)
 *(.rela.fini)
 *(.rela.rodata .rela.rodata.* .rela.gnu.linkonce.r.*)
 *(.rela.data .rela.data.* .rela.gnu.linkonce.d.*)
 *(.rela.tdata .rela.tdata.* .rela.gnu.linkonce.td.*)
 *(.rela.tbss .rela.tbss.* .rela.gnu.linkonce.tb.*)
 *(.rela.ctors)
 *(.rela.dtors)
 *(.rela.got)
 *(.rela.bss .rela.bss.* .rela.gnu.linkonce.b.*)
                0x000113bc                PROVIDE (__rela_iplt_start, .)
 *(.rela.iplt)
                0x000113bc                PROVIDE (__rela_iplt_end, .)

.rel.plt        0x000113bc      0x3a8
 *(.rel.plt)
 .rel.plt       0x000113bc      0x3a8 /usr/lib/gcc/arm-linux-gnueabihf/4.9/../../../arm-linux-gnueabihf/crt1.o

.rela.plt
 *(.rela.plt)

.init           0x00011764        0xc
 *(SORT(.init))
 .init          0x00011764        0x8 /usr/lib/gcc/arm-linux-gnueabihf/4.9/../../../arm-linux-gnueabihf/crti.o
                0x00011764                _init
 .init          0x0001176c        0x4 /usr/lib/gcc/arm-linux-gnueabihf/4.9/../../../arm-linux-gnueabihf/crtn.o

.plt            0x00011770      0x590
 *(.plt)
 .plt           0x00011770      0x590 /usr/lib/gcc/arm-linux-gnueabihf/4.9/../../../arm-linux-gnueabihf/crt1.o
                0x00011784                pthread_mutex_unlock@@GLIBC_2.4
                0x00011790                raise@@GLIBC_2.4
                0x0001179c                cfmakeraw@@GLIBC_2.4
                0x000117a8                gmtime_r@@GLIBC_2.4
                0x000117b4                log@@GLIBC_2.4
                0x000117c0                setitimer@@GLIBC_2.4
                0x000117cc                __pthread_register_cancel@@GLIBC_2.4
                0x000117d8                strcmp@@GLIBC_2.4
                0x000117e4                trunc@@GLIBC_2.4
                0x000117f0                times@@GLIBC_2.4
                0x000117fc                printf@@GLIBC_2.4
                0x00011808                fopen@@GLIBC_2.4
                0x00011814                read@@GLIBC_2.4
                0x00011820                pthread_mutex_destroy@@GLIBC_2.4
                0x0001182c                mktime@@GLIBC_2.4
                0x00011838                longjmp@@GLIBC_2.4
                0x00011844                fflush@@GLIBC_2.4
                0x00011850                _setjmp@@GLIBC_2.4
                0x0001185c                memmove@@GLIBC_2.4
                0x00011868                free@@GLIBC_2.4
                0x00011874                fgets@@GLIBC_2.4
                0x00011880                pthread_mutex_lock@@GLIBC_2.4
                0x0001188c                clock_gettime@@GLIBC_2.17
                0x00011898                pthread_self@@GLIBC_2.4
                0x000118a4                memcpy@@GLIBC_2.4
                0x000118b0                tolower@@GLIBC_2.4
                0x000118bc                sigwait@@GLIBC_2.4
                0x000118c8                time@@GLIBC_2.4
                0x000118d4                pthread_mutex_trylock@@GLIBC_2.4
                0x000118e0                pow@@GLIBC_2.4
                0x000118ec                memcmp@@GLIBC_2.4
                0x000118f8                sleep@@GLIBC_2.4
                0x00011904                getitimer@@GLIBC_2.4
                0x00011910                sysconf@@GLIBC_2.4
                0x0001191c                realloc@@GLIBC_2.4
                0x00011928                strptime@@GLIBC_2.4
                0x00011934                __finite@@GLIBC_2.4
                0x00011940                localtime_r@@GLIBC_2.4
                0x0001194c                poll@@GLIBC_2.4
                0x00011958                sigaction@@GLIBC_2.4
                0x00011964                fwrite@@GLIBC_2.4
                0x00011970                strcat@@GLIBC_2.4
                0x0001197c                tcsetattr@@GLIBC_2.4
                0x00011988                strcpy@@GLIBC_2.4
                0x00011994                gettimeofday@@GLIBC_2.4
                0x000119a0                pthread_sigmask@@GLIBC_2.4
                0x000119ac                fread@@GLIBC_2.4
                0x000119b8                sched_yield@@GLIBC_2.4
                0x000119c4                pthread_create@@GLIBC_2.4
                0x000119d0                floor@@GLIBC_2.4
                0x000119dc                acos@@GLIBC_2.4
                0x000119e8                puts@@GLIBC_2.4
                0x000119f4                malloc@@GLIBC_2.4
                0x00011a00                sigaddset@@GLIBC_2.4
                0x00011a0c                __libc_start_main@@GLIBC_2.4
                0x00011a18                strftime@@GLIBC_2.4
                0x00011a24                localtime@@GLIBC_2.4
                0x00011a30                pthread_once@@GLIBC_2.4
                0x00011a48                open@@GLIBC_2.4
                0x00011a54                __ctype_b_loc@@GLIBC_2.4
                0x00011a60                getpid@@GLIBC_2.4
                0x00011a6c                exit@@GLIBC_2.4
                0x00011a78                sin@@GLIBC_2.4
                0x00011a84                __fpclassify@@GLIBC_2.4
                0x00011a90                strlen@@GLIBC_2.4
                0x00011a9c                getopt@@GLIBC_2.4
                0x00011aa8                fprintf@@GLIBC_2.4
                0x00011ab4                fcntl@@GLIBC_2.4
                0x00011ac0                sqrt@@GLIBC_2.4
                0x00011acc                pthread_attr_init@@GLIBC_2.4
                0x00011ad8                sigfillset@@GLIBC_2.4
                0x00011ae4                __errno_location@@GLIBC_2.4
                0x00011af0                snprintf@@GLIBC_2.4
                0x00011afc                __cxa_atexit@@GLIBC_2.4
                0x00011b08                tan@@GLIBC_2.4
                0x00011b14                memset@@GLIBC_2.4
                0x00011b20                __pthread_unregister_cancel@@GLIBC_2.4
                0x00011b2c                putchar@@GLIBC_2.4
                0x00011b38                strncpy@@GLIBC_2.4
                0x00011b44                pthread_cancel@@GLIBC_2.4
                0x00011b50                write@@GLIBC_2.4
                0x00011b5c                sigdelset@@GLIBC_2.4
                0x00011b68                atan@@GLIBC_2.4
                0x00011b74                asin@@GLIBC_2.4
                0x00011b80                __pthread_unwind_next@@GLIBC_2.4
                0x00011b8c                difftime@@GLIBC_2.4
                0x00011b98                __isnan@@GLIBC_2.4
                0x00011ba4                ceil@@GLIBC_2.4
                0x00011bb0                rand@@GLIBC_2.4
                0x00011bbc                pthread_kill@@GLIBC_2.4
                0x00011bc8                fclose@@GLIBC_2.4
                0x00011bd4                pthread_exit@@GLIBC_2.4
                0x00011be0                sigemptyset@@GLIBC_2.4
                0x00011bec                popen@@GLIBC_2.4
                0x00011bf8                toupper@@GLIBC_2.4
                0x00011c04                vfprintf@@GLIBC_2.4
                0x00011c10                __sigsetjmp@@GLIBC_2.4
                0x00011c1c                sscanf@@GLIBC_2.4
                0x00011c28                sprintf@@GLIBC_2.4
                0x00011c34                exp@@GLIBC_2.4
                0x00011c40                vsnprintf@@GLIBC_2.4
                0x00011c4c                atoi@@GLIBC_2.4
                0x00011c58                fmod@@GLIBC_2.4
                0x00011c64                cfsetspeed@@GLIBC_2.4
                0x00011c70                __signbit@@GLIBC_2.4
                0x00011c7c                pthread_testcancel@@GLIBC_2.4
                0x00011c88                isatty@@GLIBC_2.4
                0x00011c94                pthread_attr_setdetachstate@@GLIBC_2.4
                0x00011ca0                fputs@@GLIBC_2.4
                0x00011cac                strncmp@@GLIBC_2.4
                0x00011cb8                abort@@GLIBC_2.4
                0x00011cc4                close@@GLIBC_2.4
                0x00011cd0                atan2@@GLIBC_2.4
                0x00011cdc                cos@@GLIBC_2.4
                0x00011ce8                tcgetattr@@GLIBC_2.4
                0x00011cf4                pclose@@GLIBC_2.4

.iplt           0x00011d00        0x0
 *(.iplt)
 .iplt          0x00011d00        0x0 /usr/lib/gcc/arm-linux-gnueabihf/4.9/../../../arm-linux-gnueabihf/crt1.o

.text           0x00011d00    0xa9b5c
 *(.text.unlikely .text.*_unlikely .text.unlikely.*)
 *(.text.exit .text.exit.*)
 *(.text.startup .text.startup.*)
 *(.text.hot .text.hot.*)
 *(.text .stub .text.* .gnu.linkonce.t.*)
 .text          0x00011d00       0x3c /usr/lib/gcc/arm-linux-gnueabihf/4.9/../../../arm-linux-gnueabihf/crt1.o
                0x00011d00                _start
 .text          0x00011d3c       0x24 /usr/lib/gcc/arm-linux-gnueabihf/4.9/../../../arm-linux-gnueabihf/crti.o
 .text          0x00011d60       0xc8 /usr/lib/gcc/arm-linux-gnueabihf/4.9/crtbegin.o
 .text          0x00011e28       0xbc /tmp/ccaAoCVE.o
                0x00011e28                do_init
                0x00011e6c                main
                0x00011ed4                vApplicationIdleHook
 .text          0x00011ee4      0x974 ./build/libshell.a(console.o)
                0x00011ee4                reset_input_mode
                0x00011f10                set_input_mode
                0x00011fc4                do_command
                0x00012278                console_isr
                0x00012324                do_console
                0x00012804                shell_init
 .text          0x00012858      0x5d8 ./build/libshell.a(parser.o)
                0x00012858                sindex
                0x000128d0                chstore
                0x000129cc                parser
 .text          0x00012e30      0x168 ./build/libshell.a(cmd.o)
                0x00012e30                cmd_help
                0x00012ea8                cmd_quit
                0x00012ed8                cmd_ver
                0x00012f08                cmd_os
 .text          0x00012f98       0x10 ./build/libapp.a(app.o)
                0x00012f98                app_init
 .text          0x00012fa8      0x7b4 ./build/libapp.a(tcpecho.o)
                0x00012fa8                tcpecho_server_handler
                0x00013204                tcpecho_client_handler
                0x000134bc                cmd_echo
                0x000136d0                tcpecho_server_init
 .text          0x0001375c      0x8b8 ./build/libapp.a(ping.o)
                0x00013c2c                ping_thread
                0x00013ee8                cmd_ping
 .text          0x00014014       0x4c ./build/libapp.a(cmdnet.o)
                0x00014014                cmd_net
 .text          0x00014060      0x394 ./build/libapp.a(cmdduktape.o)
                0x00014060                cmd_duk
 *fill*         0x000143f4        0x4 
 .text          0x000143f8    0x58830 ./build/libapp.a(duktape.o)
                0x0001636c                duk_resize_buffer
                0x00016428                duk_steal_buffer
                0x00016518                duk_config_buffer
                0x00017b34                duk_dump_function
                0x00017be8                duk_load_function
                0x00017d5c                duk_call
                0x00017e00                duk_call_method
                0x00017e88                duk_call_prop
                0x00017ed4                duk_pcall
                0x00017f84                duk_pcall_method
                0x00018088                duk_pcall_prop
                0x000180e8                duk_safe_call
                0x00018174                duk_new
                0x000183f8                duk_pnew
                0x00018448                duk_is_constructor_call
                0x00018500                duk_is_strict_call
                0x00018560                duk_get_current_magic
                0x00018618                duk_get_magic
                0x00018720                duk_set_magic
                0x00018ecc                duk_base64_encode
                0x00018fd0                duk_base64_decode
                0x000190f8                duk_hex_encode
                0x000192cc                duk_hex_decode
                0x0001966c                duk_json_encode
                0x000196d8                duk_json_decode
                0x00019724                duk_eval_raw
                0x000199d8                duk_compile_raw
                0x00019ab4                duk_push_context_dump
                0x00019b8c                duk_debugger_attach
                0x00019be8                duk_debugger_detach
                0x00019c38                duk_debugger_cooperate
                0x00019c54                duk_debugger_notify
                0x00019cc0                duk_debugger_pause
                0x00019cdc                duk_create_heap
                0x00019d98                duk_destroy_heap
                0x00019ddc                duk_suspend
                0x00019ee0                duk_resume
                0x00019f6c                duk_set_global_object
                0x0001a188                duk_inspect_value
                0x0001a4cc                duk_inspect_callstack_entry
                0x0001a5d4                duk_alloc_raw
                0x0001a624                duk_free_raw
                0x0001a66c                duk_realloc_raw
                0x0001a6c4                duk_alloc
                0x0001a704                duk_free
                0x0001a73c                duk_realloc
                0x0001a784                duk_get_memory_functions
                0x0001a7f8                duk_gc
                0x0001a83c                duk_get_prop
                0x0001a8a4                duk_get_prop_string
                0x0001a8f4                duk_get_prop_lstring
                0x0001a94c                duk_get_prop_index
                0x0001ab64                duk_put_prop
                0x0001ab98                duk_put_prop_string
                0x0001abec                duk_put_prop_lstring
                0x0001ac48                duk_put_prop_index
                0x0001ad5c                duk_del_prop
                0x0001add4                duk_del_prop_string
                0x0001ae24                duk_del_prop_lstring
                0x0001ae7c                duk_del_prop_index
                0x0001af3c                duk_has_prop
                0x0001afa4                duk_has_prop_string
                0x0001aff4                duk_has_prop_lstring
                0x0001b04c                duk_has_prop_index
                0x0001b35c                duk_get_prop_desc
                0x0001b388                duk_def_prop
                0x0001b5f0                duk_compact
                0x0001b660                duk_enum
                0x0001b6a8                duk_next
                0x0001b6f4                duk_put_function_list
                0x0001b790                duk_put_number_list
                0x0001b83c                duk_get_global_string
                0x0001b898                duk_get_global_lstring
                0x0001b8fc                duk_put_global_string
                0x0001b964                duk_put_global_lstring
                0x0001b9d4                duk_get_prototype
                0x0001ba38                duk_set_prototype
                0x0001baa8                duk_get_finalizer
                0x0001bad4                duk_set_finalizer
                0x0001bd18                duk_normalize_index
                0x0001bdb8                duk_require_normalize_index
                0x0001c02c                duk_is_valid_index
                0x0001c068                duk_require_valid_index
                0x0001c0c0                duk_get_top
                0x0001c178                duk_set_top
                0x0001c364                duk_get_top_index
                0x0001c420                duk_require_top_index
                0x0001c780                duk_check_stack
                0x0001c808                duk_require_stack
                0x0001c888                duk_check_stack_top
                0x0001c8e4                duk_require_stack_top
                0x0001c938                duk_swap
                0x0001c9a0                duk_swap_top
                0x0001c9cc                duk_dup
                0x0001caa8                duk_dup_top
                0x0001cc90                duk_insert
                0x0001cd18                duk_replace
                0x0001cdf4                duk_copy
                0x0001cf0c                duk_remove
                0x0001d024                duk_xcopymove_raw
                0x0001d290                duk_require_undefined
                0x0001d304                duk_require_null
                0x0001d378                duk_get_boolean
                0x0001d3d8                duk_require_boolean
                0x0001d460                duk_get_number
                0x0001d4cc                duk_require_number
                0x0001d558                duk_get_int
                0x0001d58c                duk_get_uint
                0x0001d5c0                duk_require_int
                0x0001d5f4                duk_require_uint
                0x0001d628                duk_get_lstring
                0x0001d6cc                duk_require_lstring
                0x0001d77c                duk_get_string
                0x0001d7fc                duk_require_string
                0x0001d868                duk_get_pointer
                0x0001d8c8                duk_require_pointer
                0x0001da50                duk_get_buffer
                0x0001da8c                duk_require_buffer
                0x0001dcec                duk_get_buffer_data
                0x0001dd30                duk_require_buffer_data
                0x0001e388                duk_get_c_function
                0x0001e410                duk_require_c_function
                0x0001e480                duk_require_function
                0x0001e554                duk_get_context
                0x0001e584                duk_require_context
                0x0001e5b4                duk_get_heapptr
                0x0001e614                duk_require_heapptr
                0x0001e960                duk_get_length
                0x0001ebd0                duk_set_length
                0x0001ecd0                duk_to_undefined
                0x0001ed80                duk_to_null
                0x0001ee30                duk_to_primitive
                0x0001efd4                duk_to_boolean
                0x0001f0b8                duk_to_number
                0x0001f34c                duk_to_int
                0x0001f394                duk_to_uint
                0x0001f3dc                duk_to_int32
                0x0001f4c4                duk_to_uint32
                0x0001f5ac                duk_to_uint16
                0x0001f7a0                duk_to_lstring
                0x0001f814                duk_safe_to_lstring
                0x0001fd04                duk_to_string
                0x0001ffcc                duk_buffer_to_string
                0x0002003c                duk_to_buffer_raw
                0x000201d4                duk_to_pointer
                0x000203cc                duk_to_object
                0x00020770                duk_get_type
                0x00020848                duk_check_type
                0x0002093c                duk_get_type_mask
                0x00020978                duk_check_type_mask
                0x00020a20                duk_is_undefined
                0x00020a58                duk_is_null
                0x00020a90                duk_is_boolean
                0x00020ac8                duk_is_number
                0x00020b18                duk_is_nan
                0x00020b7c                duk_is_string
                0x00020bf4                duk_is_object
                0x00020c2c                duk_is_buffer
                0x00020c64                duk_is_buffer_data
                0x00020cf8                duk_is_pointer
                0x00020d30                duk_is_lightfunc
                0x00020d68                duk_is_symbol
                0x00020dc4                duk_is_array
                0x00020e24                duk_is_function
                0x00020e88                duk_is_c_function
                0x00020ebc                duk_is_ecmascript_function
                0x00020ef0                duk_is_bound_function
                0x00020f24                duk_is_thread
                0x00020f58                duk_is_fixed_buffer
                0x00020fd0                duk_is_dynamic_buffer
                0x00021060                duk_is_external_buffer
                0x000210f0                duk_get_error_code
                0x00021300                duk_push_undefined
                0x00021374                duk_push_null
                0x000213f8                duk_push_boolean
                0x000214a0                duk_push_true
                0x00021528                duk_push_false
                0x000215b0                duk_push_number
                0x00021684                duk_push_int
                0x00021724                duk_push_uint
                0x000217c4                duk_push_nan
                0x0002185c                duk_push_lstring
                0x0002196c                duk_push_string
                0x000219c8                duk_push_pointer
                0x00021c34                duk_push_this
                0x00021d20                duk_push_current_function
                0x00021d74                duk_push_current_thread
                0x00021dcc                duk_push_global_object
                0x00021e54                duk_push_heap_stash
                0x00021e9c                duk_push_global_stash
                0x00021ec4                duk_push_thread_stash
                0x00021f7c                duk_push_vsprintf
                0x0002210c                duk_push_sprintf
                0x000222d0                duk_push_object
                0x0002230c                duk_push_array
                0x000224bc                duk_push_thread_raw
                0x00022938                duk_push_c_function
                0x00022a00                duk_push_c_lightfunc
                0x00022c90                duk_push_buffer_object
                0x00022f04                duk_push_error_object_va_raw
                0x00022fe0                duk_push_error_object_raw
                0x0002303c                duk_push_error_object_stash
                0x000230d4                duk_push_buffer_raw
                0x0002326c                duk_push_heapptr
                0x00023330                duk_push_bare_object
                0x00023520                duk_pop_n
                0x000236b4                duk_pop
                0x00023874                duk_pop_2
                0x00023898                duk_pop_3
                0x00023a4c                duk_throw_raw
                0x00023ab8                duk_fatal_raw
                0x00023afc                duk_error_va_raw
                0x00023b44                duk_error_raw
                0x00023c14                duk_error_stash
                0x00023c48                duk_generic_error_stash
                0x00023c78                duk_eval_error_stash
                0x00023ca8                duk_range_error_stash
                0x00023cd8                duk_reference_error_stash
                0x00023d08                duk_syntax_error_stash
                0x00023d38                duk_type_error_stash
                0x00023d68                duk_uri_error_stash
                0x00023d98                duk_equals
                0x00023e1c                duk_strict_equals
                0x00023e98                duk_samevalue
                0x00023f14                duk_instanceof
                0x000249f8                duk_concat
                0x00024a24                duk_join
                0x00024a50                duk_decode_string
                0x00024afc                duk_map_string
                0x00024c7c                duk_substring
                0x00024d6c                duk_trim
                0x00024f8c                duk_char_code_at
                0x00025000                duk_get_now
                0x00025028                duk_time_to_components
                0x000250e0                duk_components_to_time
 .text          0x0006cc28     0x1418 ./build/libapp.a(cmdfs.o)
                0x0006cc28                cmd_mount
                0x0006cc48                cmd_unmount
                0x0006cc68                cmd_dir
                0x0006d02c                cmd_touch
                0x0006d354                cmd_del
                0x0006d494                cmd_mkdir
                0x0006d538                cmd_cd
                0x0006d600                cmd_pwd
                0x0006d67c                cmd_rename
                0x0006d72c                cmd_stat
                0x0006daac                cmd_cp
                0x0006dc9c                cmd_cat
 .text          0x0006e040     0x1330 ./build/libsys.a(sys.o)
                0x0006e040                _inbyte
                0x0006e0b4                _outbyte
                0x0006e36c                pppos_client_thread
                0x0006e614                pppos_server_thread
                0x0006e92c                exit_u2w
                0x0006e9ac                cmd_info
                0x0006ea90                cmd_on
                0x0006ec2c                cmd_off
                0x0006ec70                cmd_cfg
                0x0006efa0                cmd_xmodem
 .text          0x0006f370     0x1464 ./build/libsys.a(util.o)
                0x0006f370                vMainQueueSendPassed
                0x0006f39c                queue_init
                0x0006f43c                queue_exit
                0x0006f498                queue_put
                0x0006f5b4                queue_get
                0x0006f6bc                queue_peek
                0x0006f7c0                queue_move
                0x0006f900                queue_data_size
                0x0006f9c8                queue_space
                0x0006fa20                queue_reset
                0x0006fa94                fd_set_blocking
                0x0006fb28                get_time_milisec
                0x0006fb88                dump_frame
                0x000704a0                p2p_log_msg
                0x00070650                get_server_ip
 .text          0x000707d4      0x94c ./build/libsys.a(xmodem.o)
                0x0007090c                xmodemReceive
                0x00070cc4                xmodemTransmit
 .text          0x00071120       0x9c ./build/libsys.a(crc16.o)
                0x00071120                crc16_ccitt
 .text          0x000711bc      0x20c ./build/liblwip.a(network.o)
                0x000711f0                LwIP_Init
                0x00071270                netif_info
 .text          0x000713c8      0xa80 ./build/liblwip.a(sys_arch.o)
                0x000713c8                sys_mbox_new
                0x00071420                sys_mbox_free
                0x00071458                sys_mbox_post
                0x000714a4                sys_mbox_trypost
                0x0007150c                sys_arch_mbox_fetch
                0x000715fc                sys_arch_mbox_tryfetch
                0x00071664                sys_mbox_valid
                0x000716a0                sys_mbox_set_invalid
                0x000716c8                sys_sem_new
                0x00071778                sys_arch_sem_wait
                0x00071844                sys_sem_signal
                0x00071878                sys_sem_free
                0x000718a0                sys_sem_valid
                0x000718dc                sys_sem_set_invalid
                0x00071904                sys_init
                0x000719a0                sys_arch_timeouts
                0x00071a38                sys_mutex_new
                0x00071a84                sys_mutex_free
                0x00071ac8                sys_mutex_lock
                0x00071b28                sys_mutex_unlock
                0x00071b78                sys_thread_new
                0x00071c5c                sys_thread_delete
                0x00071dcc                sys_arch_protect
                0x00071de4                sys_arch_unprotect
                0x00071e00                sys_assert
                0x00071e18                sys_now
                0x00071e30                sys_jiffies
 .text          0x00071e48     0x4650 ./build/liblwip.a(sockets.o)
                0x00071e48                lwip_socket_thread_init
                0x00071e5c                lwip_socket_thread_cleanup
                0x00072228                lwip_accept
                0x000726f8                lwip_bind
                0x0007286c                lwip_close
                0x0007299c                lwip_connect
                0x00072b4c                lwip_listen
                0x00072cac                lwip_recvfrom
                0x000732b0                lwip_read
                0x000732fc                lwip_recv
                0x0007334c                lwip_send
                0x000734ac                lwip_sendmsg
                0x000739f0                lwip_sendto
                0x00073c24                lwip_socket
                0x00073d5c                lwip_write
                0x00073d98                lwip_writev
                0x000743a8                lwip_select
                0x00074f0c                lwip_shutdown
                0x0007528c                lwip_getpeername
                0x000752c8                lwip_getsockname
                0x00075304                lwip_getsockopt
                0x00075b00                lwip_setsockopt
                0x00076160                lwip_ioctl
                0x000762b0                lwip_fcntl
 .text          0x00076498      0x6dc ./build/liblwip.a(tcpip.o)
                0x00076604                tcpip_inpkt
                0x000766f0                tcpip_input
                0x0007675c                tcpip_callback_with_block
                0x0007685c                tcpip_send_msg_wait_sem
                0x000768a8                tcpip_api_call
                0x000768f8                tcpip_callbackmsg_new
                0x00076960                tcpip_callbackmsg_delete
                0x00076984                tcpip_trycallback
                0x000769f4                tcpip_init
                0x00076b0c                pbuf_free_callback
                0x00076b40                mem_free_callback
 .text          0x00076b74      0x408 ./build/liblwip.a(def.o)
                0x00076b74                lwip_htons
                0x00076bb0                lwip_htonl
                0x00076c04                lwip_strnstr
                0x00076cd0                lwip_stricmp
                0x00076d90                lwip_strnicmp
                0x00076e68                lwip_itoa
 .text          0x00076f7c      0x8b0 ./build/liblwip.a(inet_chksum.o)
                0x00076f7c                lwip_standard_chksum
                0x00077270                inet_chksum_pseudo
                0x0007734c                ip_chksum_pseudo
                0x000775a4                inet_chksum_pseudo_partial
                0x00077680                ip_chksum_pseudo_partial
                0x000776d4                inet_chksum
                0x00077714                inet_chksum_pbuf
 .text          0x0007782c       0x34 ./build/liblwip.a(init.o)
                0x0007782c                lwip_init
 .text          0x00077860      0xc38 ./build/liblwip.a(mem.o)
                0x00077ab0                mem_init
                0x00077bb4                mem_free
                0x00077d38                mem_trim
                0x000780a4                mem_malloc
                0x00078428                mem_calloc
 .text          0x00078498      0x430 ./build/liblwip.a(memp.o)
                0x00078498                memp_init_pool
                0x00078544                memp_init
                0x00078644                memp_malloc_pool
                0x000786bc                memp_malloc
                0x000787c8                memp_free_pool
                0x00078848                memp_free
 .text          0x000788c8     0x137c ./build/liblwip.a(netif.o)
                0x00078918                netif_init
                0x00078994                netif_input
                0x000789f0                netif_add
                0x00078e78                netif_set_addr
                0x00078f04                netif_remove
                0x0007906c                netif_find
                0x000791bc                netif_set_ipaddr
                0x00079378                netif_set_gw
                0x00079458                netif_set_netmask
                0x00079538                netif_set_default
                0x000795cc                netif_set_up
                0x000796bc                netif_set_down
                0x0007973c                netif_set_status_callback
                0x00079774                netif_set_link_up
                0x000797e0                netif_set_link_down
                0x00079828                netif_loop_output
                0x000799b8                netif_poll
                0x00079b28                netif_name_to_index
                0x00079b74                netif_index_to_name
 .text          0x00079c44     0x2128 ./build/liblwip.a(pbuf.o)
                0x00079d78                pbuf_alloc
                0x0007a328                pbuf_alloced_custom
                0x0007a494                pbuf_realloc
                0x0007a9a4                pbuf_header
                0x0007a9e0                pbuf_header_force
                0x0007aa1c                pbuf_free
                0x0007ac70                pbuf_clen
                0x0007acc4                pbuf_ref
                0x0007ad10                pbuf_cat
                0x0007ae58                pbuf_chain
                0x0007ae88                pbuf_dechain
                0x0007afc0                pbuf_copy
                0x0007b2c8                pbuf_copy_partial
                0x0007b52c                pbuf_skip
                0x0007b570                pbuf_take
                0x0007b79c                pbuf_take_at
                0x0007b8cc                pbuf_coalesce
                0x0007b990                pbuf_get_at
                0x0007b9e4                pbuf_try_get_at
                0x0007ba60                pbuf_put_at
                0x0007badc                pbuf_memcmp
                0x0007bc08                pbuf_memfind
                0x0007bcc8                pbuf_strstr
 .text          0x0007bd6c      0x934 ./build/liblwip.a(raw.o)
                0x0007be08                raw_input
                0x0007bff8                raw_bind
                0x0007c068                raw_connect
                0x0007c0f0                raw_disconnect
                0x0007c130                raw_recv
                0x0007c16c                raw_sendto
                0x0007c23c                raw_sendto_if_src
                0x0007c440                raw_send
                0x0007c47c                raw_remove
                0x0007c530                raw_new
                0x0007c5b4                raw_new_ip_type
                0x0007c5f4                raw_netif_ip_addr_changed
 .text          0x0007c6a0     0x3014 ./build/liblwip.a(tcp.o)
                0x0007c6a0                tcp_init
                0x0007c6b4                tcp_tmr
                0x0007cc60                tcp_close
                0x0007ccb4                tcp_shutdown
                0x0007cdb8                tcp_abandon
                0x0007d02c                tcp_abort
                0x0007d050                tcp_bind
                0x0007d29c                tcp_listen_with_backlog
                0x0007d2d8                tcp_listen_with_backlog_and_err
                0x0007d50c                tcp_update_rcv_ann_wnd
                0x0007d634                tcp_recved
                0x0007d86c                tcp_connect
                0x0007dc44                tcp_slowtmr
                0x0007e60c                tcp_fasttmr
                0x0007e730                tcp_txnow
                0x0007e790                tcp_process_refused_data
                0x0007e900                tcp_segs_free
                0x0007e944                tcp_seg_free
                0x0007e994                tcp_setprio
                0x0007e9c4                tcp_seg_copy
                0x0007ea24                tcp_recv_null
                0x0007ed40                tcp_alloc
                0x0007eed0                tcp_new
                0x0007eeec                tcp_new_ip_type
                0x0007ef1c                tcp_arg
                0x0007ef54                tcp_recv
                0x0007efc8                tcp_sent
                0x0007f03c                tcp_err
                0x0007f0b0                tcp_accept
                0x0007f100                tcp_poll
                0x0007f17c                tcp_pcb_purge
                0x0007f260                tcp_pcb_remove
                0x0007f434                tcp_next_iss
                0x0007f480                tcp_eff_send_mss_netif
                0x0007f5a4                tcp_netif_ip_addr_changed
                0x0007f684                tcp_debug_state_str
 .text          0x0007f6b4     0x4714 ./build/liblwip.a(tcp_in.o)
                0x0007f6b4                tcp_input
                0x00083d98                tcp_trigger_input_pcb_close
 .text          0x00083dc8     0x31ac ./build/liblwip.a(tcp_out.o)
                0x00084084                tcp_send_fin
                0x00084750                tcp_write
                0x0008543c                tcp_enqueue_flags
                0x000857ec                tcp_send_empty_ack
                0x00085990                tcp_output
                0x00086514                tcp_rst
                0x000867ec                tcp_rexmit_rto
                0x000868bc                tcp_rexmit
                0x00086a14                tcp_rexmit_fast
                0x00086b1c                tcp_keepalive
                0x00086c58                tcp_zero_window_probe
 .text          0x00086f74      0x750 ./build/liblwip.a(timeouts.o)
                0x00086fe0                tcp_timer_needed
                0x00087090                sys_timeouts_init
                0x00087110                sys_timeout
                0x00087378                sys_untimeout
                0x000875a4                sys_restart_timeouts
                0x00087648                sys_timeouts_mbox_fetch
 .text          0x000876c4      0xf90 ./build/liblwip.a(udp.o)
                0x000876c4                udp_init
                0x00087880                udp_input
                0x00087c34                udp_send
                0x00087c8c                udp_sendto
                0x00087d24                udp_sendto_if
                0x00087e08                udp_sendto_if_src
                0x00088108                udp_bind
                0x000882b0                udp_connect
                0x000883f0                udp_disconnect
                0x0008843c                udp_recv
                0x00088478                udp_remove
                0x0008852c                udp_new
                0x0008857c                udp_new_ip_type
                0x000885a8                udp_netif_ip_addr_changed
 .text          0x00088654     0x382c ./build/liblwip.a(dhcp.o)
                0x00088bd8                dhcp_coarse_tmr
                0x00088d08                dhcp_fine_tmr
                0x000891b0                dhcp_set_struct
                0x0008928c                dhcp_cleanup
                0x0008930c                dhcp_start
                0x000894e8                dhcp_inform
                0x00089634                dhcp_network_changed
                0x00089720                dhcp_arp_reply
                0x00089e20                dhcp_renew
                0x0008a3d4                dhcp_release
                0x0008a5b0                dhcp_stop
                0x0008be00                dhcp_supplied_address
 .text          0x0008be80     0x1dbc ./build/liblwip.a(etharp.o)
                0x0008bfe8                etharp_tmr
                0x0008c994                etharp_cleanup_netif
                0x0008ca44                etharp_find_addr
                0x0008cb6c                etharp_get_entry
                0x0008cd00                etharp_input
                0x0008d164                etharp_output
                0x0008d4cc                etharp_query
                0x0008dc04                etharp_request
 .text          0x0008dc3c      0x768 ./build/liblwip.a(icmp.o)
                0x0008dc3c                icmp_input
                0x0008e160                icmp_dest_unreach
                0x0008e194                icmp_time_exceeded
 .text          0x0008e3a4      0xe64 ./build/liblwip.a(ip4.o)
                0x0008e3a4                ip4_route
                0x0008e508                ip4_input
                0x0008eabc                ip4_output_if
                0x0008eb54                ip4_output_if_src
                0x0008f148                ip4_output
 .text          0x0008f208      0x7e4 ./build/liblwip.a(ip4_addr.o)
                0x0008f208                ip4_addr_isbroadcast_u32
                0x0008f2f8                ip4_addr_netmask_valid
                0x0008f398                ipaddr_addr
                0x0008f3dc                ip4addr_aton
                0x0008f804                ip4addr_ntoa
                0x0008f838                ip4addr_ntoa_r
 .text          0x0008f9ec     0x1994 ./build/liblwip.a(ip4_frag.o)
                0x0008f9ec                ip_reass_tmr
                0x00090840                ip4_reass
                0x00090ee8                ip4_frag
 .text          0x00091380     0x181c ./build/liblwip.a(ppp.o)
                0x00091380                ppp_set_auth
                0x00091434                ppp_connect
                0x00091528                ppp_listen
                0x000915e4                ppp_close
                0x00091778                ppp_free
                0x00091834                ppp_ioctl
                0x00091bec                ppp_init
                0x00091c1c                ppp_new
                0x00091e48                ppp_start
                0x00091ef8                ppp_link_failed
                0x00091f84                ppp_link_end
                0x00092020                ppp_input
                0x0009246c                ppp_singlebuf
                0x00092580                ppp_write
                0x000925c8                ppp_link_terminated
                0x0009266c                new_phase
                0x000926e0                ppp_send_config
                0x00092788                ppp_recv_config
                0x00092830                sifaddr
                0x0009288c                cifaddr
                0x000928d8                sifvjcomp
                0x000929a0                sifup
                0x00092a58                sifdown
                0x00092ae0                get_mask
                0x00092b04                netif_set_mtu
                0x00092b70                netif_get_mtu
 .text          0x00092b9c     0x1728 ./build/liblwip.a(pppos.o)
                0x00092b9c                pppos_create
                0x000933b0                pppos_input_tcpip
                0x0009345c                pppos_input_sys
                0x000934dc                pppos_input
 .text          0x000942c4      0xdb4 ./build/liblwip.a(upap.o)
                0x00094334                upap_authwithpeer
                0x00094434                upap_authpeer
 .text          0x00095078     0x135c ./build/liblwip.a(utils.o)
                0x00095078                ppp_strlcpy
                0x00095108                ppp_strlcat
                0x00095184                ppp_slprintf
                0x000951d4                ppp_vslprintf
                0x0009604c                ppp_print_string
                0x00096264                ppp_fatal
                0x000962bc                ppp_error
                0x000962f4                ppp_warn
                0x0009632c                ppp_notice
                0x00096364                ppp_info
                0x0009639c                ppp_dbglog
 .text          0x000963d4     0x23cc ./build/liblwip.a(vj.o)
                0x000963d4                vj_compress_init
                0x000964f4                vj_compress_tcp
                0x000974cc                vj_uncompress_err
                0x00097500                vj_uncompress_uncomp
                0x000976cc                vj_uncompress_tcp
 .text          0x000987a0      0x328 ./build/liblwip.a(ethernet.o)
                0x000987a0                ethernet_input
                0x000989b4                ethernet_output
 .text          0x00098ac8     0x1130 ./build/liblwip.a(api_lib.o)
                0x00098b38                netconn_new_with_proto_and_callback
                0x00098ce8                netconn_delete
                0x00098d6c                netconn_getaddr
                0x00098e70                netconn_bind
                0x00098f24                netconn_connect
                0x00098fdc                netconn_disconnect
                0x00099060                netconn_listen_with_backlog
                0x000990e8                netconn_accept
                0x000995bc                netconn_recv_tcp_pbuf
                0x0009963c                netconn_recv
                0x000997dc                netconn_sendto
                0x0009985c                netconn_send
                0x000998ec                netconn_write_partly
                0x00099b54                netconn_close
                0x00099b80                netconn_shutdown
 .text          0x00099bf8     0x3a3c ./build/liblwip.a(api_msg.o)
                0x0009abb8                lwip_netconn_do_newconn
                0x0009ac4c                netconn_alloc
                0x0009ae08                netconn_free
                0x0009b668                lwip_netconn_do_delconn
                0x0009ba5c                lwip_netconn_do_bind
                0x0009be54                lwip_netconn_do_connect
                0x0009c1b8                lwip_netconn_do_disconnect
                0x0009c26c                lwip_netconn_do_listen
                0x0009c524                lwip_netconn_do_send
                0x0009c740                lwip_netconn_do_recv
                0x0009cea0                lwip_netconn_do_write
                0x0009d12c                lwip_netconn_do_getaddr
                0x0009d3c8                lwip_netconn_do_close
 .text          0x0009d634       0xbc ./build/liblwip.a(err.o)
                0x0009d634                err_to_errno
                0x0009d690                lwip_strerr
 .text          0x0009d6f0      0x618 ./build/liblwip.a(netbuf.o)
                0x0009d6f0                netbuf_new
                0x0009d734                netbuf_delete
                0x0009d7a0                netbuf_alloc
                0x0009d8ac                netbuf_free
                0x0009d938                netbuf_ref
                0x0009da40                netbuf_chain
                0x0009dafc                netbuf_data
                0x0009dc00                netbuf_next
                0x0009dca8                netbuf_first
 .text          0x0009dd08        0x0 ./build/liblwip.a(ip.o)
 .text          0x0009dd08      0xb0c ./build/liblwip.a(auth.o)
                0x0009dd08                link_required
                0x0009dd24                link_terminated
                0x0009dd78                link_down
                0x0009ddb4                upper_layers_down
                0x0009de8c                link_established
                0x0009e16c                start_networks
                0x0009e198                continue_networks
                0x0009e250                auth_check_passwd
                0x0009e37c                auth_peer_fail
                0x0009e3b4                auth_peer_success
                0x0009e4b8                auth_withpeer_fail
                0x0009e4f0                auth_withpeer_success
                0x0009e628                np_up
                0x0009e678                np_down
                0x0009e6c8                np_finished
                0x0009e71c                get_secret
 .text          0x0009e814     0x120c ./build/liblwip.a(chap-new.o)
                0x0009e8e8                chap_auth_peer
                0x0009e9f8                chap_auth_with_peer
 .text          0x0009fa20     0x2f14 ./build/liblwip.a(ipcp.o)
 .text          0x000a2934     0x4804 ./build/liblwip.a(lcp.o)
                0x000a2abc                lcp_open
                0x000a2b6c                lcp_close
                0x000a2c3c                lcp_lowerup
                0x000a2d74                lcp_lowerdown
                0x000a3168                lcp_sprotrej
 .text          0x000a7138      0x238 ./build/liblwip.a(magic.o)
                0x000a7200                magic_init
                0x000a7218                magic_randomize
                0x000a7230                magic_random_bytes
                0x000a7308                magic
                0x000a7334                magic_pow
 .text          0x000a7370     0x1dfc ./build/liblwip.a(md5.o)
                0x000a7370                md5_starts
                0x000a8cd0                md5_update
                0x000a8e4c                md5_finish
                0x000a911c                md5
 .text          0x000a916c      0x228 ./build/liblwip.a(chap-md5.o)
 .text          0x000a9394     0x1a2c ./build/liblwip.a(fsm.o)
                0x000a9394                fsm_init
                0x000a93fc                fsm_lowerup
                0x000a9480                fsm_lowerdown
                0x000a9590                fsm_open
                0x000a982c                fsm_close
                0x000a9b4c                fsm_input
                0x000aa790                fsm_protreject
                0x000aabf0                fsm_sdata
 .text          0x000aadc0      0x448 ./build/libfreertos.a(AsyncIO.o)
                0x000aadc0                lAsyncIORegisterCallback
                0x000aae80                vAsyncIOUnregisterCallback
                0x000aaf58                prvSignalHandler
                0x000ab0dc                prvRegisterSignalHandler
 .text          0x000ab208      0x1c8 ./build/libfreertos.a(AsyncIOSerial.o)
                0x000ab208                lAsyncIOSerialOpen
                0x000ab310                vAsyncSerialIODataAvailableISR
 .text          0x000ab3d0      0x758 ./build/libfreertos.a(croutine.o)
                0x000ab3d0                xCoRoutineCreate
                0x000ab538                vCoRoutineAddToDelayedList
                0x000ab618                prvCheckPendingReadyList
                0x000ab6f8                prvCheckDelayedList
                0x000ab8b8                vCoRoutineSchedule
                0x000ab9e0                prvInitialiseCoRoutineLists
                0x000aba84                xCoRoutineRemoveFromEventList
 .text          0x000abb28      0x288 ./build/libfreertos.a(list.o)
                0x000abb28                vListInitialise
                0x000abb8c                vListInitialiseItem
                0x000abbb4                vListInsertEnd
                0x000abc48                vListInsert
                0x000abd1c                vListRemove
 .text          0x000abdb0     0x11bc ./build/libfreertos.a(queue.o)
                0x000abdb0                xQueueCreate
                0x000abef0                xQueueCreateMutex
                0x000abfc4                xQueueGiveMutexRecursive
                0x000ac048                xQueueTakeMutexRecursive
                0x000ac0dc                xQueueCreateCountingSemaphore
                0x000ac128                xQueueGenericSend
                0x000ac2d8                xQueueGenericSendFromISR
                0x000ac3b8                xQueueGenericReceive
                0x000ac60c                xQueueReceiveFromISR
                0x000ac6f0                uxQueueMessagesWaiting
                0x000ac724                uxQueueMessagesWaitingFromISR
                0x000ac754                vQueueDelete
                0x000acab8                xQueueIsQueueEmptyFromISR
                0x000acb44                xQueueIsQueueFullFromISR
                0x000acb8c                xQueueCRSend
                0x000acc80                xQueueCRReceive
                0x000acdd0                xQueueCRSendFromISR
                0x000ace60                xQueueCRReceiveFromISR
 .text          0x000acf6c     0x2620 ./build/libfreertos.a(tasks.o)
                0x000acf6c                xTaskGenericCreate
                0x000ad1bc                vTaskDelete
                0x000ad2c0                vTaskDelayUntil
                0x000ad434                vTaskDelay
                0x000ad51c                uxTaskPriorityGet
                0x000ad574                vTaskPrioritySet
                0x000ad73c                vTaskSuspend
                0x000ad7f4                xTaskIsTaskSuspended
                0x000ad870                vTaskResume
                0x000ad964                xTaskResumeFromISR
                0x000ada78                vTaskStartScheduler
                0x000adb04                vTaskEndScheduler
                0x000adb28                vTaskSuspendAll
                0x000adb54                xTaskResumeAll
                0x000add0c                xTaskGetTickCount
                0x000add40                uxTaskGetNumberOfTasks
                0x000add64                vTaskList
                0x000adee8                vTaskGetRunTimeStats
                0x000ae074                vTaskStartTrace
                0x000ae0e4                ulTaskEndTrace
                0x000ae13c                vTaskIncrementTick
                0x000ae2bc                vTaskCleanUpResources
                0x000ae550                vTaskSetApplicationTaskTag
                0x000ae5a8                xTaskGetApplicationTaskTag
                0x000ae604                xTaskCallApplicationTaskHook
                0x000ae680                vTaskSwitchContext
                0x000ae890                vTaskPlaceOnEventList
                0x000ae990                xTaskRemoveFromEventList
                0x000aeac0                vTaskSetTimeOutState
                0x000aeb04                xTaskCheckForTimeOut
                0x000aebf8                vTaskMissedYield
                0x000aec1c                prvIdleTask
                0x000aec50                prvInitialiseTCBVariables
                0x000aed24                prvInitialiseTaskLists
                0x000aede0                prvCheckTasksWaitingTermination
                0x000aeeb4                prvAllocateTCBAndStack
                0x000aef68                prvListTaskWithinSingleList
                0x000af0b8                prvGenerateRunTimeStatsForTasksInList
                0x000af264                usTaskCheckFreeStackSpace
                0x000af2c0                prvDeleteTCB
                0x000af2f0                xTaskGetCurrentTaskHandle
                0x000af320                xTaskGetSchedulerState
                0x000af388                vTaskPriorityInherit
                0x000af4b0                vTaskPriorityDisinherit
 .text          0x000af58c     0x12ac ./build/libfreertos.a(port.o)
                0x000af58c                pxPortInitialiseStack
                0x000af6e0                vPortStartFirstTask
                0x000af71c                xPortStartScheduler
                0x000af858                vPortEndScheduler
                0x000af918                vPortYieldFromISR
                0x000af93c                vPortEnterCritical
                0x000af964                vPortExitCritical
                0x000af9d0                vPortYield
                0x000afa80                vPortDisableInterrupts
                0x000afaa4                vPortEnableInterrupts
                0x000afac8                xPortSetInterruptMask
                0x000afb04                vPortClearInterruptMask
                0x000afbc8                vPortSystemTickHandler
                0x000afce4                vPortForciblyEndThread
                0x000b0634                vPortAddTaskHandle
                0x000b07d4                vPortFindTicksPerSecond
                0x000b0808                ulPortGetTimerValue
 .text          0x000b0838       0x6c ./build/libfreertos.a(heap_3.o)
                0x000b0838                pvPortMalloc
                0x000b0870                vPortFree
 .text          0x000b08a4      0x478 ./build/libfreertos.a(crhook.o)
                0x000b08a4                vStartHookCoRoutines
                0x000b095c                vApplicationTickHook
                0x000b0ce4                xAreHookCoRoutinesStillRunning
 .text          0x000b0d1c      0x180 ./build/libfreertos.a(ParTest.o)
                0x000b0d1c                vParTestInitialise
                0x000b0d40                vParTestSetLED
                0x000b0de8                vParTestToggleLED
 .text          0x000b0e9c     0x1b94 ./build/libfatfs.a(fs_port.o)
                0x000b0f24                do_fs
                0x000b15e0                fs_init
                0x000b173c                fs_open
                0x000b184c                fs_close
                0x000b1938                fs_read
                0x000b1a5c                fs_write
                0x000b1b80                fs_opendir
                0x000b1c7c                fs_closedir
                0x000b1d68                fs_readdir
                0x000b1e64                fs_getfree
                0x000b1f8c                fs_unlink
                0x000b2078                fs_stat
                0x000b2174                fs_findfirst
                0x000b2290                fs_findnext
                0x000b238c                fs_mkdir
                0x000b2478                fs_chdir
                0x000b2564                fs_getcwd
                0x000b2660                fs_rename
                0x000b275c                fs_lseek
                0x000b2858                fs_truncate
                0x000b2944                fs_sync
 .text          0x000b2a30     0x7c18 ./build/libfatfs.a(ff.o)
                0x000b6c60                f_mount
                0x000b6d48                f_open
                0x000b7260                f_read
                0x000b76e4                f_write
                0x000b7c24                f_sync
                0x000b7de0                f_close
                0x000b7e48                f_chdir
                0x000b7f30                f_getcwd
                0x000b8224                f_lseek
                0x000b86b0                f_opendir
                0x000b87f8                f_closedir
                0x000b8848                f_readdir
                0x000b8910                f_findnext
                0x000b89a4                f_findfirst
                0x000b8a08                f_stat
                0x000b8ab4                f_getfree
                0x000b8d34                f_truncate
                0x000b8f64                f_unlink
                0x000b9164                f_mkdir
                0x000b94c4                f_rename
                0x000b976c                f_mkfs
 .text          0x000ba648      0x344 ./build/libfatfs.a(cc950.o)
                0x000ba648                ff_convert
                0x000ba7ac                ff_wtoupper
 .text          0x000ba98c       0xb4 ./build/libfatfs.a(fattime.o)
                0x000ba98c                get_fattime
 .text          0x000baa40      0x23c ./build/libfatfs.a(diskio.o)
                0x000baa40                disk_status
                0x000baaa4                disk_initialize
                0x000bab08                disk_read
                0x000bab84                disk_write
                0x000bac00                disk_ioctl
 .text          0x000bac7c      0x2c0 ./build/libfatfs.a(ramdisk.o)
                0x000bac7c                RAM_disk_status
                0x000baca4                RAM_disk_initialize
                0x000bad48                RAM_disk_read
                0x000badd8                RAM_disk_write
                0x000bae68                RAM_disk_ioctl
 .text          0x000baf3c      0x20c /usr/lib/gcc/arm-linux-gnueabihf/4.9/libgcc.a(_udivsi3.o)
                0x000baf3c                __aeabi_uidiv
                0x000baf3c                __udivsi3
                0x000bb128                __aeabi_uidivmod
 .text          0x000bb148      0x240 /usr/lib/gcc/arm-linux-gnueabihf/4.9/libgcc.a(_divsi3.o)
                0x000bb148                __divsi3
                0x000bb148                __aeabi_idiv
                0x000bb368                __aeabi_idivmod
 .text          0x000bb388      0x3b8 /usr/lib/gcc/arm-linux-gnueabihf/4.9/libgcc.a(_arm_addsubdf3.o)
                0x000bb388                __aeabi_drsub
                0x000bb390                __aeabi_dsub
                0x000bb390                __subdf3
                0x000bb394                __adddf3
                0x000bb394                __aeabi_dadd
                0x000bb640                __floatunsidf
                0x000bb640                __aeabi_ui2d
                0x000bb664                __aeabi_i2d
                0x000bb664                __floatsidf
                0x000bb68c                __aeabi_f2d
                0x000bb68c                __extendsfdf2
                0x000bb6cc                __aeabi_ul2d
                0x000bb6cc                __floatundidf
                0x000bb6e0                __floatdidf
                0x000bb6e0                __aeabi_l2d
 .text          0x000bb740       0x10 /usr/lib/gcc/arm-linux-gnueabihf/4.9/libgcc.a(_dvmd_lnx.o)
                0x000bb740                __aeabi_ldiv0
                0x000bb740                __aeabi_idiv0
 .text          0x000bb750       0x2c /usr/lib/gcc/arm-linux-gnueabihf/4.9/libgcc.a(_fixdfdi.o)
                0x000bb750                __aeabi_d2lz
                0x000bb750                __fixdfdi
 *fill*         0x000bb77c        0x4 
 .text          0x000bb780       0x48 /usr/lib/gcc/arm-linux-gnueabihf/4.9/libgcc.a(_fixunsdfdi.o)
                0x000bb780                __aeabi_d2ulz
                0x000bb780                __fixunsdfdi
 .text          0x000bb7c8       0x68 /usr/lib/arm-linux-gnueabihf/libc_nonshared.a(elf-init.oS)
                0x000bb7c8                __libc_csu_init
                0x000bb82c                __libc_csu_fini
 .text          0x000bb830       0x2c /usr/lib/arm-linux-gnueabihf/libc_nonshared.a(atexit.oS)
                0x000bb830                atexit
 .text          0x000bb85c        0x0 /usr/lib/gcc/arm-linux-gnueabihf/4.9/crtend.o
 .text          0x000bb85c        0x0 /usr/lib/gcc/arm-linux-gnueabihf/4.9/../../../arm-linux-gnueabihf/crtn.o
 *(.gnu.warning)
 *(.glue_7t)
 .glue_7t       0x000bb85c        0x0 linker stubs
 *(.glue_7)
 .glue_7        0x000bb85c        0x0 linker stubs
 *(.vfp11_veneer)
 .vfp11_veneer  0x000bb85c        0x0 linker stubs
 *(.v4_bx)
 .v4_bx         0x000bb85c        0x0 linker stubs

.fini           0x000bb85c        0x8
 *(SORT(.fini))
 .fini          0x000bb85c        0x4 /usr/lib/gcc/arm-linux-gnueabihf/4.9/../../../arm-linux-gnueabihf/crti.o
                0x000bb85c                _fini
 .fini          0x000bb860        0x4 /usr/lib/gcc/arm-linux-gnueabihf/4.9/../../../arm-linux-gnueabihf/crtn.o
                0x000bb864                PROVIDE (__etext, .)
                0x000bb864                PROVIDE (_etext, .)
                0x000bb864                PROVIDE (etext, .)

.rodata         0x000bb864    0x25520
 *(.rodata .rodata.* .gnu.linkonce.r.*)
 .rodata.cst4   0x000bb864        0x4 /usr/lib/gcc/arm-linux-gnueabihf/4.9/../../../arm-linux-gnueabihf/crt1.o
                0x000bb864                _IO_stdin_used
 .rodata        0x000bb868       0x44 /tmp/ccaAoCVE.o
 .rodata        0x000bb8ac       0xf4 ./build/libshell.a(console.o)
 .rodata        0x000bb9a0       0x10 ./build/libshell.a(parser.o)
 .rodata        0x000bb9b0      0x630 ./build/libshell.a(cmd.o)
 .rodata        0x000bbfe0      0x2b0 ./build/libapp.a(tcpecho.o)
 .rodata        0x000bc290      0x138 ./build/libapp.a(ping.o)
 .rodata        0x000bc3c8        0x4 ./build/libapp.a(cmdnet.o)
 .rodata        0x000bc3cc       0x9c ./build/libapp.a(cmdduktape.o)
 .rodata        0x000bc468     0x4108 ./build/libapp.a(duktape.o)
                0x000bf6f4                duk_unicode_ids_noa
                0x000bfb00                duk_unicode_ids_m_let_noa
                0x000bfb2c                duk_unicode_idp_m_ids_noa
                0x000bfd40                duk_unicode_caseconv_uc
                0x000c02ac                duk_unicode_caseconv_lc
 .rodata        0x000c0570      0x2f4 ./build/libapp.a(cmdfs.o)
 .rodata        0x000c0864      0x864 ./build/libsys.a(sys.o)
                0x000c0884                baudrate
                0x000c0894                PPP_User
                0x000c0994                PPP_Pass
 .rodata        0x000c10c8      0x274 ./build/libsys.a(util.o)
 .rodata        0x000c133c      0x200 ./build/libsys.a(crc16.o)
 .rodata        0x000c153c       0x90 ./build/liblwip.a(network.o)
 .rodata        0x000c15cc      0x258 ./build/liblwip.a(sockets.o)
 .rodata        0x000c1824       0xc0 ./build/liblwip.a(tcpip.o)
 .rodata        0x000c18e4       0x48 ./build/liblwip.a(def.o)
 .rodata        0x000c192c       0x54 ./build/liblwip.a(inet_chksum.o)
 .rodata        0x000c1980      0x200 ./build/liblwip.a(mem.o)
 .rodata        0x000c1b80      0x28c ./build/liblwip.a(memp.o)
                0x000c1b88                memp_RAW_PCB
                0x000c1ba0                memp_UDP_PCB
                0x000c1bb8                memp_TCP_PCB
                0x000c1bd8                memp_TCP_PCB_LISTEN
                0x000c1bf0                memp_TCP_SEG
                0x000c1c0c                memp_REASSDATA
                0x000c1c28                memp_FRAG_PBUF
                0x000c1c40                memp_NETBUF
                0x000c1c58                memp_NETCONN
                0x000c1c78                memp_TCPIP_MSG_API
                0x000c1c98                memp_TCPIP_MSG_INPKT
                0x000c1cb4                memp_SYS_TIMEOUT
                0x000c1cd4                memp_PBUF
                0x000c1cf0                memp_PBUF_POOL
                0x000c1d00                memp_pools
 .rodata        0x000c1e0c      0x2ac ./build/liblwip.a(netif.o)
 .rodata        0x000c20b8      0x4e0 ./build/liblwip.a(pbuf.o)
 .rodata        0x000c2598       0xb4 ./build/liblwip.a(raw.o)
 .rodata        0x000c264c      0x4f0 ./build/liblwip.a(tcp.o)
                0x000c2708                tcp_pcb_lists
 .rodata        0x000c2b3c      0x370 ./build/liblwip.a(tcp_in.o)
 .rodata        0x000c2eac      0x488 ./build/liblwip.a(tcp_out.o)
 .rodata        0x000c3334       0xac ./build/liblwip.a(timeouts.o)
                0x000c3334                lwip_cyclic_timers
 .rodata        0x000c33e0       0x84 ./build/liblwip.a(udp.o)
 .rodata        0x000c3464      0x4fc ./build/liblwip.a(dhcp.o)
 .rodata        0x000c3960      0x250 ./build/liblwip.a(etharp.o)
 .rodata        0x000c3bb0       0xe0 ./build/liblwip.a(icmp.o)
 .rodata        0x000c3c90       0x80 ./build/liblwip.a(ip4.o)
 .rodata        0x000c3d10       0x60 ./build/liblwip.a(ip4_addr.o)
                0x000c3d10                ip_addr_any
                0x000c3d14                ip_addr_broadcast
 .rodata        0x000c3d70      0x208 ./build/liblwip.a(ip4_frag.o)
 .rodata        0x000c3f78      0x4c8 ./build/liblwip.a(ppp.o)
                0x000c3f80                memp_PPP_PCB
                0x000c3f90                protocols
 .rodata        0x000c4440      0x4d8 ./build/liblwip.a(pppos.o)
                0x000c444c                memp_PPPOS_PCB
 .rodata        0x000c4918      0x148 ./build/liblwip.a(upap.o)
                0x000c4918                pap_protent
 .rodata        0x000c4a60       0x88 ./build/liblwip.a(utils.o)
 .rodata        0x000c4ae8      0x1c0 ./build/liblwip.a(vj.o)
 .rodata        0x000c4ca8       0x8c ./build/liblwip.a(ethernet.o)
                0x000c4ca8                ethbroadcast
                0x000c4cb0                ethzero
 .rodata        0x000c4d34      0x2cc ./build/liblwip.a(api_lib.o)
 .rodata        0x000c5000      0x4b0 ./build/liblwip.a(api_msg.o)
 .rodata        0x000c54b0      0x190 ./build/liblwip.a(err.o)
 .rodata        0x000c5640      0x180 ./build/liblwip.a(netbuf.o)
 .rodata        0x000c57c0      0x19c ./build/liblwip.a(auth.o)
 .rodata        0x000c595c      0x1c0 ./build/liblwip.a(chap-new.o)
                0x000c5afc                chap_protent
 .rodata        0x000c5b1c      0x1c0 ./build/liblwip.a(ipcp.o)
                0x000c5b60                ipcp_protent
 .rodata        0x000c5cdc      0x254 ./build/liblwip.a(lcp.o)
                0x000c5d1c                lcp_protent
 .rodata        0x000c5f30       0x40 ./build/liblwip.a(md5.o)
 .rodata        0x000c5f70       0x38 ./build/liblwip.a(chap-md5.o)
                0x000c5f90                md5_digest
 .rodata        0x000c5fa8      0x154 ./build/liblwip.a(fsm.o)
 .rodata        0x000c60fc       0x5c ./build/libfreertos.a(AsyncIO.o)
 .rodata        0x000c6158       0x38 ./build/libfreertos.a(AsyncIOSerial.o)
 .rodata        0x000c6190       0x50 ./build/libfreertos.a(tasks.o)
 .rodata        0x000c61e0      0x178 ./build/libfreertos.a(port.o)
 .rodata        0x000c6358      0x104 ./build/libfatfs.a(fs_port.o)
 .rodata        0x000c645c       0x78 ./build/libfatfs.a(ff.o)
 .rodata        0x000c64d4    0x1a8b0 ./build/libfatfs.a(cc950.o)

.rodata1
 *(.rodata1)

.ARM.extab      0x000e0d84        0x0
 *(.ARM.extab* .gnu.linkonce.armextab.*)
 .ARM.extab     0x000e0d84        0x0 /usr/lib/gcc/arm-linux-gnueabihf/4.9/../../../arm-linux-gnueabihf/crt1.o
                0x000e0d84                PROVIDE (__exidx_start, .)

.ARM.exidx      0x000e0d84        0x8
 *(.ARM.exidx* .gnu.linkonce.armexidx.*)
 .ARM.exidx     0x000e0d84        0x8 /usr/lib/gcc/arm-linux-gnueabihf/4.9/../../../arm-linux-gnueabihf/crt1.o
                0x000e0d8c                PROVIDE (__exidx_end, .)

.eh_frame_hdr   0x000e0d8c        0x0
 *(.eh_frame_hdr)
 .eh_frame_hdr  0x000e0d8c        0x0 /usr/lib/gcc/arm-linux-gnueabihf/4.9/../../../arm-linux-gnueabihf/crtn.o

.eh_frame       0x000e0d8c        0x4
 *(.eh_frame)
 .eh_frame      0x000e0d8c        0x4 /usr/lib/gcc/arm-linux-gnueabihf/4.9/crtend.o

.gcc_except_table
 *(.gcc_except_table .gcc_except_table.*)

.exception_ranges
 *(.exception_ranges .exception_ranges*)
                0x000e0d90                . = (ALIGN (0x10000) - ((0x10000 - .) & 0xffff))
                0x000f1000                . = DATA_SEGMENT_ALIGN (0x10000, 0x1000)

.eh_frame
 *(.eh_frame)

.gcc_except_table
 *(.gcc_except_table .gcc_except_table.*)

.exception_ranges
 *(.exception_ranges .exception_ranges*)

.tdata
 *(.tdata .tdata.* .gnu.linkonce.td.*)

.tbss
 *(.tbss .tbss.* .gnu.linkonce.tb.*)
 *(.tcommon)

.preinit_array  0x000f1000        0x0
                0x000f1000                PROVIDE (__preinit_array_start, .)
 *(.preinit_array)
                0x000f1000                PROVIDE (__preinit_array_end, .)

.init_array     0x000f1000        0x4
                0x000f1000                PROVIDE (__init_array_start, .)
 *(SORT(.init_array.*) SORT(.ctors.*))
 *(.init_array EXCLUDE_FILE(*crtend?.o *crtend.o *crtbegin?.o *crtbegin.o) .ctors)
 .init_array    0x000f1000        0x4 /usr/lib/gcc/arm-linux-gnueabihf/4.9/crtbegin.o
                0x000f1004                PROVIDE (__init_array_end, .)

.fini_array     0x000f1004        0x4
                0x000f1004                PROVIDE (__fini_array_start, .)
 *(SORT(.fini_array.*) SORT(.dtors.*))
 *(.fini_array EXCLUDE_FILE(*crtend?.o *crtend.o *crtbegin?.o *crtbegin.o) .dtors)
 .fini_array    0x000f1004        0x4 /usr/lib/gcc/arm-linux-gnueabihf/4.9/crtbegin.o
                0x000f1008                PROVIDE (__fini_array_end, .)

.ctors
 *crtbegin.o(.ctors)
 *crtbegin?.o(.ctors)
 *(EXCLUDE_FILE(*crtend?.o *crtend.o) .ctors)
 *(SORT(.ctors.*))
 *(.ctors)

.dtors
 *crtbegin.o(.dtors)
 *crtbegin?.o(.dtors)
 *(EXCLUDE_FILE(*crtend?.o *crtend.o) .dtors)
 *(SORT(.dtors.*))
 *(.dtors)

.jcr            0x000f1008        0x4
 *(.jcr)
 .jcr           0x000f1008        0x0 /usr/lib/gcc/arm-linux-gnueabihf/4.9/crtbegin.o
 .jcr           0x000f1008        0x4 /usr/lib/gcc/arm-linux-gnueabihf/4.9/crtend.o

.data.rel.ro
 *(.data.rel.ro.local* .gnu.linkonce.d.rel.ro.local.*)
 *(.data.rel.ro .data.rel.ro.* .gnu.linkonce.d.rel.ro.*)

.dynamic        0x000f100c       0xf8
 *(.dynamic)
 .dynamic       0x000f100c       0xf8 /usr/lib/gcc/arm-linux-gnueabihf/4.9/../../../arm-linux-gnueabihf/crt1.o
                0x000f100c                _DYNAMIC
                0x000f1104                . = DATA_SEGMENT_RELRO_END (., 0x0)

.got            0x000f1104      0x1e8
 *(.got.plt)
 .got.plt       0x000f1104      0x1e0 /usr/lib/gcc/arm-linux-gnueabihf/4.9/../../../arm-linux-gnueabihf/crt1.o
                0x000f1104                _GLOBAL_OFFSET_TABLE_
 *(.igot.plt)
 .igot.plt      0x000f12e4        0x0 /usr/lib/gcc/arm-linux-gnueabihf/4.9/../../../arm-linux-gnueabihf/crt1.o
 *(.got)
 .got           0x000f12e4        0x8 /usr/lib/gcc/arm-linux-gnueabihf/4.9/../../../arm-linux-gnueabihf/crt1.o
 *(.igot)

.data           0x000f12ec      0x569
                0x000f12ec                PROVIDE (__data_start, .)
 *(.data .data.* .gnu.linkonce.d.*)
 .data          0x000f12ec        0x4 /usr/lib/gcc/arm-linux-gnueabihf/4.9/../../../arm-linux-gnueabihf/crt1.o
                0x000f12ec                data_start
                0x000f12ec                __data_start
 .data          0x000f12f0        0x0 /usr/lib/gcc/arm-linux-gnueabihf/4.9/../../../arm-linux-gnueabihf/crti.o
 .data          0x000f12f0        0x4 /usr/lib/gcc/arm-linux-gnueabihf/4.9/crtbegin.o
                0x000f12f0                __dso_handle
 .data          0x000f12f4        0x4 /tmp/ccaAoCVE.o
                0x000f12f4                software_version
 .data          0x000f12f8        0x0 ./build/libshell.a(console.o)
 .data          0x000f12f8       0x10 ./build/libshell.a(parser.o)
                0x000f12f8                whitesp
                0x000f12fc                breakch
                0x000f1300                quotech
                0x000f1304                escape
 .data          0x000f1308      0x1a0 ./build/libshell.a(cmd.o)
                0x000f1308                commands
 .data          0x000f14a8        0x0 ./build/libapp.a(app.o)
 .data          0x000f14a8      0x208 ./build/libapp.a(tcpecho.o)
 .data          0x000f16b0        0x4 ./build/libapp.a(ping.o)
 .data          0x000f16b4        0x0 ./build/libapp.a(cmdnet.o)
 .data          0x000f16b4        0x0 ./build/libapp.a(cmdduktape.o)
 .data          0x000f16b4       0xc0 ./build/libapp.a(duktape.o)
 .data          0x000f1774        0x0 ./build/libapp.a(cmdfs.o)
 .data          0x000f1774       0x60 ./build/libsys.a(sys.o)
                0x000f17b8                baudstr
                0x000f17c8                baudid
                0x000f17cc                debug_flags
 .data          0x000f17d4        0x0 ./build/libsys.a(util.o)
 .data          0x000f17d4        0x0 ./build/libsys.a(xmodem.o)
 .data          0x000f17d4        0x0 ./build/libsys.a(crc16.o)
 .data          0x000f17d4        0x0 ./build/liblwip.a(network.o)
 .data          0x000f17d4        0x0 ./build/liblwip.a(sys_arch.o)
 .data          0x000f17d4        0x0 ./build/liblwip.a(sockets.o)
 .data          0x000f17d4        0x0 ./build/liblwip.a(tcpip.o)
 .data          0x000f17d4        0x0 ./build/liblwip.a(def.o)
 .data          0x000f17d4        0x0 ./build/liblwip.a(inet_chksum.o)
 .data          0x000f17d4        0x0 ./build/liblwip.a(init.o)
 .data          0x000f17d4        0x0 ./build/liblwip.a(mem.o)
 .data          0x000f17d4        0x0 ./build/liblwip.a(memp.o)
 .data          0x000f17d4        0x0 ./build/liblwip.a(netif.o)
 .data          0x000f17d4        0x0 ./build/liblwip.a(pbuf.o)
 .data          0x000f17d4        0x0 ./build/liblwip.a(raw.o)
 .data          0x000f17d4        0x8 ./build/liblwip.a(tcp.o)
 .data          0x000f17dc        0x0 ./build/liblwip.a(tcp_in.o)
 .data          0x000f17dc        0x0 ./build/liblwip.a(tcp_out.o)
 .data          0x000f17dc        0x0 ./build/liblwip.a(timeouts.o)
 .data          0x000f17dc        0x2 ./build/liblwip.a(udp.o)
 *fill*         0x000f17de        0x2 
 .data          0x000f17e0        0x4 ./build/liblwip.a(dhcp.o)
 .data          0x000f17e4        0x0 ./build/liblwip.a(etharp.o)
 .data          0x000f17e4        0x0 ./build/liblwip.a(icmp.o)
 .data          0x000f17e4        0x0 ./build/liblwip.a(ip4.o)
 .data          0x000f17e4        0x0 ./build/liblwip.a(ip4_addr.o)
 .data          0x000f17e4        0x0 ./build/liblwip.a(ip4_frag.o)
 .data          0x000f17e4        0x0 ./build/liblwip.a(ppp.o)
 .data          0x000f17e4        0x0 ./build/liblwip.a(pppos.o)
 .data          0x000f17e4        0x0 ./build/liblwip.a(upap.o)
 .data          0x000f17e4       0x14 ./build/liblwip.a(utils.o)
 .data          0x000f17f8        0x0 ./build/liblwip.a(vj.o)
 .data          0x000f17f8        0x0 ./build/liblwip.a(ethernet.o)
 .data          0x000f17f8        0x0 ./build/liblwip.a(api_lib.o)
 .data          0x000f17f8        0x0 ./build/liblwip.a(api_msg.o)
 .data          0x000f17f8       0x44 ./build/liblwip.a(err.o)
 .data          0x000f183c        0x0 ./build/liblwip.a(netbuf.o)
 .data          0x000f183c        0x0 ./build/liblwip.a(ip.o)
 .data          0x000f183c        0x0 ./build/liblwip.a(auth.o)
 .data          0x000f183c        0x0 ./build/liblwip.a(chap-new.o)
 .data          0x000f183c        0x0 ./build/liblwip.a(ipcp.o)
 .data          0x000f183c        0x0 ./build/liblwip.a(lcp.o)
 .data          0x000f183c        0x0 ./build/liblwip.a(magic.o)
 .data          0x000f183c        0x0 ./build/liblwip.a(md5.o)
 .data          0x000f183c        0x0 ./build/liblwip.a(chap-md5.o)
 .data          0x000f183c        0x0 ./build/liblwip.a(fsm.o)
 .data          0x000f183c       0x10 ./build/libfreertos.a(AsyncIO.o)
 .data          0x000f184c        0x0 ./build/libfreertos.a(AsyncIOSerial.o)
 .data          0x000f184c        0x0 ./build/libfreertos.a(croutine.o)
 .data          0x000f184c        0x0 ./build/libfreertos.a(list.o)
 .data          0x000f184c        0x0 ./build/libfreertos.a(queue.o)
 .data          0x000f184c        0x4 ./build/libfreertos.a(tasks.o)
                0x000f184c                uxPreviousTask
 .data          0x000f1850        0x4 ./build/libfreertos.a(port.o)
 .data          0x000f1854        0x0 ./build/libfreertos.a(heap_3.o)
 .data          0x000f1854        0x0 ./build/libfreertos.a(crhook.o)
 .data          0x000f1854        0x0 ./build/libfreertos.a(ParTest.o)
 .data          0x000f1854        0x0 ./build/libfatfs.a(fs_port.o)
 .data          0x000f1854        0x0 ./build/libfatfs.a(ff.o)
 .data          0x000f1854        0x0 ./build/libfatfs.a(cc950.o)
 .data          0x000f1854        0x0 ./build/libfatfs.a(fattime.o)
 .data          0x000f1854        0x0 ./build/libfatfs.a(diskio.o)
 .data          0x000f1854        0x1 ./build/libfatfs.a(ramdisk.o)
 .data          0x000f1855        0x0 /usr/lib/gcc/arm-linux-gnueabihf/4.9/libgcc.a(_udivsi3.o)
 .data          0x000f1855        0x0 /usr/lib/gcc/arm-linux-gnueabihf/4.9/libgcc.a(_divsi3.o)
 .data          0x000f1855        0x0 /usr/lib/gcc/arm-linux-gnueabihf/4.9/libgcc.a(_arm_addsubdf3.o)
 .data          0x000f1855        0x0 /usr/lib/gcc/arm-linux-gnueabihf/4.9/libgcc.a(_dvmd_lnx.o)
 .data          0x000f1855        0x0 /usr/lib/gcc/arm-linux-gnueabihf/4.9/libgcc.a(_fixdfdi.o)
 .data          0x000f1855        0x0 /usr/lib/gcc/arm-linux-gnueabihf/4.9/libgcc.a(_fixunsdfdi.o)
 .data          0x000f1855        0x0 /usr/lib/arm-linux-gnueabihf/libc_nonshared.a(elf-init.oS)
 .data          0x000f1855        0x0 /usr/lib/arm-linux-gnueabihf/libc_nonshared.a(atexit.oS)
 .data          0x000f1855        0x0 /usr/lib/gcc/arm-linux-gnueabihf/4.9/crtend.o
 .data          0x000f1855        0x0 /usr/lib/gcc/arm-linux-gnueabihf/4.9/../../../arm-linux-gnueabihf/crtn.o

.tm_clone_table
                0x000f1858        0x0
 .tm_clone_table
                0x000f1858        0x0 /usr/lib/gcc/arm-linux-gnueabihf/4.9/crtbegin.o
 .tm_clone_table
                0x000f1858        0x0 /usr/lib/gcc/arm-linux-gnueabihf/4.9/crtend.o

.data1
 *(.data1)
                0x000f1858                _edata = .
                0x000f1858                PROVIDE (edata, .)
                0x000f1858                . = .
                0x000f1858                __bss_start = .
                0x000f1858                __bss_start__ = .

.bss            0x000f1858    0x1970c
 *(.dynbss)
 .dynbss        0x000f1858       0x18 /usr/lib/gcc/arm-linux-gnueabihf/4.9/../../../arm-linux-gnueabihf/crt1.o
                0x000f1858                optind@@GLIBC_2.4
                0x000f1860                stderr@@GLIBC_2.4
                0x000f1864                stdout@@GLIBC_2.4
                0x000f1868                opterr@@GLIBC_2.4
                0x000f186c                optarg@@GLIBC_2.4
 *(.bss .bss.* .gnu.linkonce.b.*)
 .bss           0x000f1870        0x0 /usr/lib/gcc/arm-linux-gnueabihf/4.9/../../../arm-linux-gnueabihf/crt1.o
 .bss           0x000f1870        0x0 /usr/lib/gcc/arm-linux-gnueabihf/4.9/../../../arm-linux-gnueabihf/crti.o
 .bss           0x000f1870        0x1 /usr/lib/gcc/arm-linux-gnueabihf/4.9/crtbegin.o
 .bss           0x000f1871        0x0 /tmp/ccaAoCVE.o
 *fill*         0x000f1871        0x3 
 .bss           0x000f1874        0xc ./build/libshell.a(console.o)
                0x000f1874                history_id
                0x000f1878                do_exit
 .bss           0x000f1880        0x0 ./build/libshell.a(parser.o)
 .bss           0x000f1880        0x0 ./build/libshell.a(cmd.o)
 .bss           0x000f1880        0x0 ./build/libapp.a(app.o)
 .bss           0x000f1880        0xc ./build/libapp.a(tcpecho.o)
 .bss           0x000f188c       0x10 ./build/libapp.a(ping.o)
 .bss           0x000f189c        0x0 ./build/libapp.a(cmdnet.o)
 .bss           0x000f189c        0x0 ./build/libapp.a(cmdduktape.o)
 .bss           0x000f189c        0x8 ./build/libapp.a(duktape.o)
                0x000f189c                duk_api_global_filename
                0x000f18a0                duk_api_global_line
 .bss           0x000f18a4      0x800 ./build/libapp.a(cmdfs.o)
 .bss           0x000f20a4       0x20 ./build/libsys.a(sys.o)
 .bss           0x000f20c4        0x8 ./build/libsys.a(util.o)
                0x000f20c4                uxQueueSendPassedCount
                0x000f20c8                show_type
 .bss           0x000f20cc        0x0 ./build/libsys.a(xmodem.o)
 .bss           0x000f20cc        0x0 ./build/libsys.a(crc16.o)
 .bss           0x000f20cc        0x0 ./build/liblwip.a(network.o)
 .bss           0x000f20cc       0x7c ./build/liblwip.a(sys_arch.o)
 .bss           0x000f2148       0xd0 ./build/liblwip.a(sockets.o)
 .bss           0x000f2218        0xc ./build/liblwip.a(tcpip.o)
 .bss           0x000f2224        0x0 ./build/liblwip.a(def.o)
 .bss           0x000f2224        0x0 ./build/liblwip.a(inet_chksum.o)
 .bss           0x000f2224        0x0 ./build/liblwip.a(init.o)
 .bss           0x000f2224       0x10 ./build/liblwip.a(mem.o)
 .bss           0x000f2234       0x38 ./build/liblwip.a(memp.o)
 .bss           0x000f226c       0x44 ./build/liblwip.a(netif.o)
 .bss           0x000f22b0        0x0 ./build/liblwip.a(pbuf.o)
 .bss           0x000f22b0        0x4 ./build/liblwip.a(raw.o)
 .bss           0x000f22b4        0x2 ./build/liblwip.a(tcp.o)
 *fill*         0x000f22b6        0x2 
 .bss           0x000f22b8       0x38 ./build/liblwip.a(tcp_in.o)
 .bss           0x000f22f0        0x0 ./build/liblwip.a(tcp_out.o)
 .bss           0x000f22f0        0xc ./build/liblwip.a(timeouts.o)
 .bss           0x000f22fc        0x0 ./build/liblwip.a(udp.o)
 .bss           0x000f22fc        0xc ./build/liblwip.a(dhcp.o)
 .bss           0x000f2308       0xf4 ./build/liblwip.a(etharp.o)
 .bss           0x000f23fc        0x0 ./build/liblwip.a(icmp.o)
 .bss           0x000f23fc        0x2 ./build/liblwip.a(ip4.o)
 *fill*         0x000f23fe        0x2 
 .bss           0x000f2400       0x10 ./build/liblwip.a(ip4_addr.o)
 .bss           0x000f2410        0x8 ./build/liblwip.a(ip4_frag.o)
 .bss           0x000f2418        0x4 ./build/liblwip.a(ppp.o)
 .bss           0x000f241c        0x4 ./build/liblwip.a(pppos.o)
 .bss           0x000f2420        0x0 ./build/liblwip.a(upap.o)
 .bss           0x000f2420        0x0 ./build/liblwip.a(utils.o)
 .bss           0x000f2420        0x0 ./build/liblwip.a(vj.o)
 .bss           0x000f2420        0x0 ./build/liblwip.a(ethernet.o)
 .bss           0x000f2420        0x0 ./build/liblwip.a(api_lib.o)
 .bss           0x000f2420        0x0 ./build/liblwip.a(api_msg.o)
 .bss           0x000f2420        0x0 ./build/liblwip.a(err.o)
 .bss           0x000f2420        0x0 ./build/liblwip.a(netbuf.o)
 .bss           0x000f2420        0x0 ./build/liblwip.a(ip.o)
 .bss           0x000f2420        0x0 ./build/liblwip.a(auth.o)
 .bss           0x000f2420        0x0 ./build/liblwip.a(chap-new.o)
 .bss           0x000f2420        0x0 ./build/liblwip.a(ipcp.o)
 .bss           0x000f2420        0x0 ./build/liblwip.a(lcp.o)
 .bss           0x000f2420       0x18 ./build/liblwip.a(magic.o)
 .bss           0x000f2438        0x0 ./build/liblwip.a(md5.o)
 .bss           0x000f2438        0x0 ./build/liblwip.a(chap-md5.o)
 .bss           0x000f2438        0x0 ./build/liblwip.a(fsm.o)
 .bss           0x000f2438        0x4 ./build/libfreertos.a(AsyncIO.o)
 .bss           0x000f243c        0x0 ./build/libfreertos.a(AsyncIOSerial.o)
 .bss           0x000f243c       0x14 ./build/libfreertos.a(croutine.o)
                0x000f243c                pxCurrentCoRoutine
                0x000f2440                uxTopCoRoutineReadyPriority
                0x000f2444                xCoRoutineTickCount
                0x000f2448                xLastTickCount
                0x000f244c                xPassedTicks
 .bss           0x000f2450        0x0 ./build/libfreertos.a(list.o)
 .bss           0x000f2450        0x0 ./build/libfreertos.a(queue.o)
 .bss           0x000f2450       0x38 ./build/libfreertos.a(tasks.o)
                0x000f2450                pxCurrentTCB
                0x000f2454                uxTasksDeleted
                0x000f2458                uxCurrentNumberOfTasks
                0x000f245c                xTickCount
                0x000f2460                uxTopUsedPriority
                0x000f2464                uxTopReadyPriority
                0x000f2468                xSchedulerRunning
                0x000f246c                uxSchedulerSuspended
                0x000f2470                uxMissedTicks
                0x000f2474                xMissedYield
                0x000f2478                xNumOfOverflows
                0x000f247c                uxTaskNumber
                0x000f2480                ulTaskSwitchedInTime
                0x000f2484                xTracing
 .bss           0x000f2488       0x78 ./build/libfreertos.a(port.o)
 .bss           0x000f2500        0x0 ./build/libfreertos.a(heap_3.o)
 .bss           0x000f2500       0x3c ./build/libfreertos.a(crhook.o)
 .bss           0x000f253c        0x1 ./build/libfreertos.a(ParTest.o)
 *fill*         0x000f253d        0x3 
 .bss           0x000f2540       0x10 ./build/libfatfs.a(fs_port.o)
 .bss           0x000f2550      0x208 ./build/libfatfs.a(ff.o)
 .bss           0x000f2758        0x0 ./build/libfatfs.a(cc950.o)
 .bss           0x000f2758        0x0 ./build/libfatfs.a(fattime.o)
 .bss           0x000f2758        0x0 ./build/libfatfs.a(diskio.o)
 .bss           0x000f2758        0x4 ./build/libfatfs.a(ramdisk.o)
 .bss           0x000f275c        0x0 /usr/lib/gcc/arm-linux-gnueabihf/4.9/libgcc.a(_udivsi3.o)
 .bss           0x000f275c        0x0 /usr/lib/gcc/arm-linux-gnueabihf/4.9/libgcc.a(_divsi3.o)
 .bss           0x000f275c        0x0 /usr/lib/gcc/arm-linux-gnueabihf/4.9/libgcc.a(_arm_addsubdf3.o)
 .bss           0x000f275c        0x0 /usr/lib/gcc/arm-linux-gnueabihf/4.9/libgcc.a(_dvmd_lnx.o)
 .bss           0x000f275c        0x0 /usr/lib/gcc/arm-linux-gnueabihf/4.9/libgcc.a(_fixdfdi.o)
 .bss           0x000f275c        0x0 /usr/lib/gcc/arm-linux-gnueabihf/4.9/libgcc.a(_fixunsdfdi.o)
 .bss           0x000f275c        0x0 /usr/lib/arm-linux-gnueabihf/libc_nonshared.a(elf-init.oS)
 .bss           0x000f275c        0x0 /usr/lib/arm-linux-gnueabihf/libc_nonshared.a(atexit.oS)
 .bss           0x000f275c        0x0 /usr/lib/gcc/arm-linux-gnueabihf/4.9/crtend.o
 .bss           0x000f275c        0x0 /usr/lib/gcc/arm-linux-gnueabihf/4.9/../../../arm-linux-gnueabihf/crtn.o
 *(COMMON)
 COMMON         0x000f275c     0x2394 ./build/libshell.a(console.o)
                0x000f275c                history
                0x000f475c                hShellTask
                0x000f4760                args
                0x000f4ab0                saved_attributes
                0x000f4aec                curr_cmd
 COMMON         0x000f4af0       0x10 ./build/libshell.a(parser.o)
                0x000f4af0                _p_flag
                0x000f4af4                _p_curquote
                0x000f4af8                _p_tokpos
                0x000f4afc                _p_state
 COMMON         0x000f4b00       0x54 ./build/libsys.a(sys.o)
                0x000f4b00                ppp
                0x000f4b04                ppp_tx_bcnt
                0x000f4b08                ppp_netif
                0x000f4b48                ppp_tx_pcnt
                0x000f4b4c                ppp_rx_bcnt
                0x000f4b50                ppp_rx_pcnt
 COMMON         0x000f4b54        0x4 ./build/liblwip.a(tcpip.o)
                0x000f4b54                lock_tcpip_core
 COMMON         0x000f4b58     0x2013 ./build/liblwip.a(mem.o)
                0x000f4b58                ram_heap
 *fill*         0x000f6b6b        0x1 
 COMMON         0x000f6b6c    0x12ceb ./build/liblwip.a(memp.o)
                0x000f6b6c                memp_memory_REASSDATA_base
                0x000f6c10                memp_memory_TCP_PCB_LISTEN_base
                0x000f6d14                memp_memory_PBUF_POOL_base
                0x00108a18                memp_memory_NETCONN_base
                0x00108c4c                memp_memory_UDP_PCB_base
                0x00108cd0                memp_memory_TCP_PCB_base
                0x00108fe0                memp_memory_FRAG_PBUF_base
                0x0010914c                memp_memory_PBUF_base
                0x00109330                memp_memory_NETBUF_base
                0x00109354                memp_memory_RAW_PCB_base
                0x001093c8                memp_memory_TCPIP_MSG_INPKT_base
                0x001094cc                memp_memory_SYS_TIMEOUT_base
                0x00109610                memp_memory_TCP_SEG_base
                0x00109754                memp_memory_TCPIP_MSG_API_base
 *fill*         0x00109857        0x1 
 COMMON         0x00109858        0x8 ./build/liblwip.a(netif.o)
                0x00109858                netif_list
                0x0010985c                netif_default
 COMMON         0x00109860        0x1 ./build/liblwip.a(pbuf.o)
                0x00109860                pbuf_free_ooseq_pending
 *fill*         0x00109861        0x3 
 COMMON         0x00109864       0x18 ./build/liblwip.a(tcp.o)
                0x00109864                tcp_active_pcbs_changed
                0x00109868                tcp_active_pcbs
                0x0010986c                tcp_bound_pcbs
                0x00109870                tcp_ticks
                0x00109874                tcp_tw_pcbs
                0x00109878                tcp_listen_pcbs
 COMMON         0x0010987c        0x4 ./build/liblwip.a(tcp_in.o)
                0x0010987c                tcp_input_pcb
 COMMON         0x00109880        0x4 ./build/liblwip.a(udp.o)
                0x00109880                udp_pcbs
 COMMON         0x00109884       0x28 ./build/liblwip.a(dhcp.o)
                0x00109884                dhcp_rx_options_given
                0x0010988c                dhcp_rx_options_val
 COMMON         0x001098ac     0x1427 ./build/liblwip.a(ppp.o)
                0x001098ac                memp_memory_PPP_PCB_base
 *fill*         0x0010acd3        0x1 
 COMMON         0x0010acd4       0x63 ./build/liblwip.a(pppos.o)
                0x0010acd4                memp_memory_PPPOS_PCB_base
 COMMON         0x0010ad37        0x1 ./build/liblwip.a(api_msg.o)
                0x0010ad37                netconn_aborted
 COMMON         0x0010ad38       0x18 ./build/liblwip.a(ip.o)
                0x0010ad38                ip_data
 COMMON         0x0010ad50       0x6c ./build/libfreertos.a(croutine.o)
                0x0010ad50                pxOverflowDelayedCoRoutineList
                0x0010ad54                pxReadyCoRoutineLists
                0x0010ad7c                xDelayedCoRoutineList2
                0x0010ad90                xPendingReadyCoRoutineList
                0x0010ada4                xDelayedCoRoutineList1
                0x0010adb8                pxDelayedCoRoutineList
 COMMON         0x0010adbc      0x1a6 ./build/libfreertos.a(tasks.o)
                0x0010adbc                pcStatsString
                0x0010adf0                xDelayedTaskList2
                0x0010ae04                pcTraceBufferEnd
                0x0010ae08                pcTraceBuffer
                0x0010ae0c                xSuspendedTaskList
                0x0010ae20                pxReadyTasksLists
                0x0010aee8                xDelayedTaskList1
                0x0010aefc                pxOverflowDelayedTaskList
                0x0010af00                xTasksWaitingTermination
                0x0010af14                xPendingReadyList
                0x0010af28                pxDelayedTaskList
                0x0010af2c                pcTraceBufferStart
                0x0010af30                pcStatusString
                0x0010af64                . = ALIGN ((. != 0x0)?0x4:0x1)
 *fill*         0x0010af62        0x2 
                0x0010af64                _bss_end__ = .
                0x0010af64                __bss_end__ = .
                0x0010af64                . = ALIGN (0x4)
                0x0010af64                . = SEGMENT_START ("ldata-segment", .)
                0x0010af64                . = ALIGN (0x4)
                0x0010af64                __end__ = .
                0x0010af64                _end = .
                0x0010af64                PROVIDE (end, .)
                0x0010af64                . = DATA_SEGMENT_END (.)

.stab
 *(.stab)

.stabstr
 *(.stabstr)

.stab.excl
 *(.stab.excl)

.stab.exclstr
 *(.stab.exclstr)

.stab.index
 *(.stab.index)

.stab.indexstr
 *(.stab.indexstr)

.comment        0x00000000       0x3d
 *(.comment)
 .comment       0x00000000       0x1f /usr/lib/gcc/arm-linux-gnueabihf/4.9/crtbegin.o
                                 0x20 (size before relaxing)
 .comment       0x0000001f       0x20 /tmp/ccaAoCVE.o
 .comment       0x0000001f       0x20 ./build/libshell.a(console.o)
 .comment       0x0000001f       0x20 ./build/libshell.a(parser.o)
 .comment       0x0000001f       0x20 ./build/libshell.a(cmd.o)
 .comment       0x0000001f       0x20 ./build/libapp.a(app.o)
 .comment       0x0000001f       0x20 ./build/libapp.a(tcpecho.o)
 .comment       0x0000001f       0x20 ./build/libapp.a(ping.o)
 .comment       0x0000001f       0x20 ./build/libapp.a(cmdnet.o)
 .comment       0x0000001f       0x20 ./build/libapp.a(cmdduktape.o)
 .comment       0x0000001f       0x20 ./build/libapp.a(duktape.o)
 .comment       0x0000001f       0x20 ./build/libapp.a(cmdfs.o)
 .comment       0x0000001f       0x20 ./build/libsys.a(sys.o)
 .comment       0x0000001f       0x20 ./build/libsys.a(util.o)
 .comment       0x0000001f       0x20 ./build/libsys.a(xmodem.o)
 .comment       0x0000001f       0x20 ./build/libsys.a(crc16.o)
 .comment       0x0000001f       0x20 ./build/liblwip.a(network.o)
 .comment       0x0000001f       0x20 ./build/liblwip.a(sys_arch.o)
 .comment       0x0000001f       0x20 ./build/liblwip.a(sockets.o)
 .comment       0x0000001f       0x20 ./build/liblwip.a(tcpip.o)
 .comment       0x0000001f       0x20 ./build/liblwip.a(def.o)
 .comment       0x0000001f       0x20 ./build/liblwip.a(inet_chksum.o)
 .comment       0x0000001f       0x20 ./build/liblwip.a(init.o)
 .comment       0x0000001f       0x20 ./build/liblwip.a(mem.o)
 .comment       0x0000001f       0x20 ./build/liblwip.a(memp.o)
 .comment       0x0000001f       0x20 ./build/liblwip.a(netif.o)
 .comment       0x0000001f       0x20 ./build/liblwip.a(pbuf.o)
 .comment       0x0000001f       0x20 ./build/liblwip.a(raw.o)
 .comment       0x0000001f       0x20 ./build/liblwip.a(tcp.o)
 .comment       0x0000001f       0x20 ./build/liblwip.a(tcp_in.o)
 .comment       0x0000001f       0x20 ./build/liblwip.a(tcp_out.o)
 .comment       0x0000001f       0x20 ./build/liblwip.a(timeouts.o)
 .comment       0x0000001f       0x20 ./build/liblwip.a(udp.o)
 .comment       0x0000001f       0x20 ./build/liblwip.a(dhcp.o)
 .comment       0x0000001f       0x20 ./build/liblwip.a(etharp.o)
 .comment       0x0000001f       0x20 ./build/liblwip.a(icmp.o)
 .comment       0x0000001f       0x20 ./build/liblwip.a(ip4.o)
 .comment       0x0000001f       0x20 ./build/liblwip.a(ip4_addr.o)
 .comment       0x0000001f       0x20 ./build/liblwip.a(ip4_frag.o)
 .comment       0x0000001f       0x20 ./build/liblwip.a(ppp.o)
 .comment       0x0000001f       0x20 ./build/liblwip.a(pppos.o)
 .comment       0x0000001f       0x20 ./build/liblwip.a(upap.o)
 .comment       0x0000001f       0x20 ./build/liblwip.a(utils.o)
 .comment       0x0000001f       0x20 ./build/liblwip.a(vj.o)
 .comment       0x0000001f       0x20 ./build/liblwip.a(ethernet.o)
 .comment       0x0000001f       0x20 ./build/liblwip.a(api_lib.o)
 .comment       0x0000001f       0x20 ./build/liblwip.a(api_msg.o)
 .comment       0x0000001f       0x20 ./build/liblwip.a(err.o)
 .comment       0x0000001f       0x20 ./build/liblwip.a(netbuf.o)
 .comment       0x0000001f       0x20 ./build/liblwip.a(ip.o)
 .comment       0x0000001f       0x20 ./build/liblwip.a(auth.o)
 .comment       0x0000001f       0x20 ./build/liblwip.a(chap-new.o)
 .comment       0x0000001f       0x20 ./build/liblwip.a(ipcp.o)
 .comment       0x0000001f       0x20 ./build/liblwip.a(lcp.o)
 .comment       0x0000001f       0x20 ./build/liblwip.a(magic.o)
 .comment       0x0000001f       0x20 ./build/liblwip.a(md5.o)
 .comment       0x0000001f       0x20 ./build/liblwip.a(chap-md5.o)
 .comment       0x0000001f       0x20 ./build/liblwip.a(fsm.o)
 .comment       0x0000001f       0x20 ./build/libfreertos.a(AsyncIO.o)
 .comment       0x0000001f       0x20 ./build/libfreertos.a(AsyncIOSerial.o)
 .comment       0x0000001f       0x20 ./build/libfreertos.a(croutine.o)
 .comment       0x0000001f       0x20 ./build/libfreertos.a(list.o)
 .comment       0x0000001f       0x20 ./build/libfreertos.a(queue.o)
 .comment       0x0000001f       0x20 ./build/libfreertos.a(tasks.o)
 .comment       0x0000001f       0x20 ./build/libfreertos.a(port.o)
 .comment       0x0000001f       0x20 ./build/libfreertos.a(heap_3.o)
 .comment       0x0000001f       0x20 ./build/libfreertos.a(crhook.o)
 .comment       0x0000001f       0x20 ./build/libfreertos.a(ParTest.o)
 .comment       0x0000001f       0x20 ./build/libfatfs.a(fs_port.o)
 .comment       0x0000001f       0x20 ./build/libfatfs.a(ff.o)
 .comment       0x0000001f       0x20 ./build/libfatfs.a(cc950.o)
 .comment       0x0000001f       0x20 ./build/libfatfs.a(fattime.o)
 .comment       0x0000001f       0x20 ./build/libfatfs.a(diskio.o)
 .comment       0x0000001f       0x20 ./build/libfatfs.a(ramdisk.o)
 .comment       0x0000001f       0x20 /usr/lib/gcc/arm-linux-gnueabihf/4.9/libgcc.a(_fixdfdi.o)
 .comment       0x0000001f       0x20 /usr/lib/gcc/arm-linux-gnueabihf/4.9/libgcc.a(_fixunsdfdi.o)
 .comment       0x0000001f       0x1e /usr/lib/arm-linux-gnueabihf/libc_nonshared.a(elf-init.oS)
                                 0x1f (size before relaxing)
 .comment       0x0000003d       0x1f /usr/lib/arm-linux-gnueabihf/libc_nonshared.a(atexit.oS)
 .comment       0x0000003d       0x20 /usr/lib/gcc/arm-linux-gnueabihf/4.9/crtend.o

.ARM.attributes
                0x00000000       0x31
 .ARM.attributes
                0x00000000       0x31 /usr/lib/gcc/arm-linux-gnueabihf/4.9/../../../arm-linux-gnueabihf/crt1.o
 .ARM.attributes
                0x00000031       0x23 /usr/lib/gcc/arm-linux-gnueabihf/4.9/../../../arm-linux-gnueabihf/crti.o
 .ARM.attributes
                0x00000054       0x31 /usr/lib/gcc/arm-linux-gnueabihf/4.9/crtbegin.o
 .ARM.attributes
                0x00000085       0x31 /tmp/ccaAoCVE.o
 .ARM.attributes
                0x000000b6       0x31 ./build/libshell.a(console.o)
 .ARM.attributes
                0x000000e7       0x31 ./build/libshell.a(parser.o)
 .ARM.attributes
                0x00000118       0x31 ./build/libshell.a(cmd.o)
 .ARM.attributes
                0x00000149       0x31 ./build/libapp.a(app.o)
 .ARM.attributes
                0x0000017a       0x31 ./build/libapp.a(tcpecho.o)
 .ARM.attributes
                0x000001ab       0x31 ./build/libapp.a(ping.o)
 .ARM.attributes
                0x000001dc       0x31 ./build/libapp.a(cmdnet.o)
 .ARM.attributes
                0x0000020d       0x31 ./build/libapp.a(cmdduktape.o)
 .ARM.attributes
                0x0000023e       0x31 ./build/libapp.a(duktape.o)
 .ARM.attributes
                0x0000026f       0x31 ./build/libapp.a(cmdfs.o)
 .ARM.attributes
                0x000002a0       0x31 ./build/libsys.a(sys.o)
 .ARM.attributes
                0x000002d1       0x31 ./build/libsys.a(util.o)
 .ARM.attributes
                0x00000302       0x31 ./build/libsys.a(xmodem.o)
 .ARM.attributes
                0x00000333       0x31 ./build/libsys.a(crc16.o)
 .ARM.attributes
                0x00000364       0x31 ./build/liblwip.a(network.o)
 .ARM.attributes
                0x00000395       0x31 ./build/liblwip.a(sys_arch.o)
 .ARM.attributes
                0x000003c6       0x31 ./build/liblwip.a(sockets.o)
 .ARM.attributes
                0x000003f7       0x31 ./build/liblwip.a(tcpip.o)
 .ARM.attributes
                0x00000428       0x31 ./build/liblwip.a(def.o)
 .ARM.attributes
                0x00000459       0x31 ./build/liblwip.a(inet_chksum.o)
 .ARM.attributes
                0x0000048a       0x31 ./build/liblwip.a(init.o)
 .ARM.attributes
                0x000004bb       0x31 ./build/liblwip.a(mem.o)
 .ARM.attributes
                0x000004ec       0x31 ./build/liblwip.a(memp.o)
 .ARM.attributes
                0x0000051d       0x31 ./build/liblwip.a(netif.o)
 .ARM.attributes
                0x0000054e       0x31 ./build/liblwip.a(pbuf.o)
 .ARM.attributes
                0x0000057f       0x31 ./build/liblwip.a(raw.o)
 .ARM.attributes
                0x000005b0       0x31 ./build/liblwip.a(tcp.o)
 .ARM.attributes
                0x000005e1       0x31 ./build/liblwip.a(tcp_in.o)
 .ARM.attributes
                0x00000612       0x31 ./build/liblwip.a(tcp_out.o)
 .ARM.attributes
                0x00000643       0x31 ./build/liblwip.a(timeouts.o)
 .ARM.attributes
                0x00000674       0x31 ./build/liblwip.a(udp.o)
 .ARM.attributes
                0x000006a5       0x31 ./build/liblwip.a(dhcp.o)
 .ARM.attributes
                0x000006d6       0x31 ./build/liblwip.a(etharp.o)
 .ARM.attributes
                0x00000707       0x31 ./build/liblwip.a(icmp.o)
 .ARM.attributes
                0x00000738       0x31 ./build/liblwip.a(ip4.o)
 .ARM.attributes
                0x00000769       0x31 ./build/liblwip.a(ip4_addr.o)
 .ARM.attributes
                0x0000079a       0x31 ./build/liblwip.a(ip4_frag.o)
 .ARM.attributes
                0x000007cb       0x31 ./build/liblwip.a(ppp.o)
 .ARM.attributes
                0x000007fc       0x31 ./build/liblwip.a(pppos.o)
 .ARM.attributes
                0x0000082d       0x31 ./build/liblwip.a(upap.o)
 .ARM.attributes
                0x0000085e       0x31 ./build/liblwip.a(utils.o)
 .ARM.attributes
                0x0000088f       0x31 ./build/liblwip.a(vj.o)
 .ARM.attributes
                0x000008c0       0x31 ./build/liblwip.a(ethernet.o)
 .ARM.attributes
                0x000008f1       0x31 ./build/liblwip.a(api_lib.o)
 .ARM.attributes
                0x00000922       0x31 ./build/liblwip.a(api_msg.o)
 .ARM.attributes
                0x00000953       0x31 ./build/liblwip.a(err.o)
 .ARM.attributes
                0x00000984       0x31 ./build/liblwip.a(netbuf.o)
 .ARM.attributes
                0x000009b5       0x31 ./build/liblwip.a(ip.o)
 .ARM.attributes
                0x000009e6       0x31 ./build/liblwip.a(auth.o)
 .ARM.attributes
                0x00000a17       0x31 ./build/liblwip.a(chap-new.o)
 .ARM.attributes
                0x00000a48       0x31 ./build/liblwip.a(ipcp.o)
 .ARM.attributes
                0x00000a79       0x31 ./build/liblwip.a(lcp.o)
 .ARM.attributes
                0x00000aaa       0x31 ./build/liblwip.a(magic.o)
 .ARM.attributes
                0x00000adb       0x31 ./build/liblwip.a(md5.o)
 .ARM.attributes
                0x00000b0c       0x31 ./build/liblwip.a(chap-md5.o)
 .ARM.attributes
                0x00000b3d       0x31 ./build/liblwip.a(fsm.o)
 .ARM.attributes
                0x00000b6e       0x31 ./build/libfreertos.a(AsyncIO.o)
 .ARM.attributes
                0x00000b9f       0x31 ./build/libfreertos.a(AsyncIOSerial.o)
 .ARM.attributes
                0x00000bd0       0x31 ./build/libfreertos.a(croutine.o)
 .ARM.attributes
                0x00000c01       0x31 ./build/libfreertos.a(list.o)
 .ARM.attributes
                0x00000c32       0x31 ./build/libfreertos.a(queue.o)
 .ARM.attributes
                0x00000c63       0x31 ./build/libfreertos.a(tasks.o)
 .ARM.attributes
                0x00000c94       0x31 ./build/libfreertos.a(port.o)
 .ARM.attributes
                0x00000cc5       0x31 ./build/libfreertos.a(heap_3.o)
 .ARM.attributes
                0x00000cf6       0x31 ./build/libfreertos.a(crhook.o)
 .ARM.attributes
                0x00000d27       0x31 ./build/libfreertos.a(ParTest.o)
 .ARM.attributes
                0x00000d58       0x31 ./build/libfatfs.a(fs_port.o)
 .ARM.attributes
                0x00000d89       0x31 ./build/libfatfs.a(ff.o)
 .ARM.attributes
                0x00000dba       0x31 ./build/libfatfs.a(cc950.o)
 .ARM.attributes
                0x00000deb       0x31 ./build/libfatfs.a(fattime.o)
 .ARM.attributes
                0x00000e1c       0x31 ./build/libfatfs.a(diskio.o)
 .ARM.attributes
                0x00000e4d       0x31 ./build/libfatfs.a(ramdisk.o)
 .ARM.attributes
                0x00000e7e       0x1d /usr/lib/gcc/arm-linux-gnueabihf/4.9/libgcc.a(_udivsi3.o)
 .ARM.attributes
                0x00000e9b       0x1d /usr/lib/gcc/arm-linux-gnueabihf/4.9/libgcc.a(_divsi3.o)
 .ARM.attributes
                0x00000eb8       0x1d /usr/lib/gcc/arm-linux-gnueabihf/4.9/libgcc.a(_arm_addsubdf3.o)
 .ARM.attributes
                0x00000ed5       0x1d /usr/lib/gcc/arm-linux-gnueabihf/4.9/libgcc.a(_dvmd_lnx.o)
 .ARM.attributes
                0x00000ef2       0x31 /usr/lib/gcc/arm-linux-gnueabihf/4.9/libgcc.a(_fixdfdi.o)
 .ARM.attributes
                0x00000f23       0x31 /usr/lib/gcc/arm-linux-gnueabihf/4.9/libgcc.a(_fixunsdfdi.o)
 .ARM.attributes
                0x00000f54       0x33 /usr/lib/arm-linux-gnueabihf/libc_nonshared.a(elf-init.oS)
 .ARM.attributes
                0x00000f87       0x33 /usr/lib/arm-linux-gnueabihf/libc_nonshared.a(atexit.oS)
 .ARM.attributes
                0x00000fba       0x31 /usr/lib/gcc/arm-linux-gnueabihf/4.9/crtend.o
 .ARM.attributes
                0x00000feb       0x23 /usr/lib/gcc/arm-linux-gnueabihf/4.9/../../../arm-linux-gnueabihf/crtn.o

.debug
 *(.debug)

.line
 *(.line)

.debug_srcinfo
 *(.debug_srcinfo)

.debug_sfnames
 *(.debug_sfnames)

.debug_aranges  0x00000000      0x918
 *(.debug_aranges)
 .debug_aranges
                0x00000000       0x20 /tmp/ccaAoCVE.o
 .debug_aranges
                0x00000020       0x20 ./build/libshell.a(console.o)
 .debug_aranges
                0x00000040       0x20 ./build/libshell.a(parser.o)
 .debug_aranges
                0x00000060       0x20 ./build/libshell.a(cmd.o)
 .debug_aranges
                0x00000080       0x20 ./build/libapp.a(app.o)
 .debug_aranges
                0x000000a0       0x20 ./build/libapp.a(tcpecho.o)
 .debug_aranges
                0x000000c0       0x20 ./build/libapp.a(ping.o)
 .debug_aranges
                0x000000e0       0x20 ./build/libapp.a(cmdnet.o)
 .debug_aranges
                0x00000100       0x20 ./build/libapp.a(cmdduktape.o)
 .debug_aranges
                0x00000120       0x20 ./build/libapp.a(duktape.o)
 .debug_aranges
                0x00000140       0x20 ./build/libapp.a(cmdfs.o)
 .debug_aranges
                0x00000160       0x20 ./build/libsys.a(sys.o)
 .debug_aranges
                0x00000180       0x20 ./build/libsys.a(util.o)
 .debug_aranges
                0x000001a0       0x20 ./build/libsys.a(xmodem.o)
 .debug_aranges
                0x000001c0       0x20 ./build/libsys.a(crc16.o)
 .debug_aranges
                0x000001e0       0x20 ./build/liblwip.a(network.o)
 .debug_aranges
                0x00000200       0x20 ./build/liblwip.a(sys_arch.o)
 .debug_aranges
                0x00000220       0x20 ./build/liblwip.a(sockets.o)
 .debug_aranges
                0x00000240       0x20 ./build/liblwip.a(tcpip.o)
 .debug_aranges
                0x00000260       0x20 ./build/liblwip.a(def.o)
 .debug_aranges
                0x00000280       0x20 ./build/liblwip.a(inet_chksum.o)
 .debug_aranges
                0x000002a0       0x20 ./build/liblwip.a(init.o)
 .debug_aranges
                0x000002c0       0x20 ./build/liblwip.a(mem.o)
 .debug_aranges
                0x000002e0       0x20 ./build/liblwip.a(memp.o)
 .debug_aranges
                0x00000300       0x20 ./build/liblwip.a(netif.o)
 .debug_aranges
                0x00000320       0x20 ./build/liblwip.a(pbuf.o)
 .debug_aranges
                0x00000340       0x20 ./build/liblwip.a(raw.o)
 .debug_aranges
                0x00000360       0x20 ./build/liblwip.a(tcp.o)
 .debug_aranges
                0x00000380       0x20 ./build/liblwip.a(tcp_in.o)
 .debug_aranges
                0x000003a0       0x20 ./build/liblwip.a(tcp_out.o)
 .debug_aranges
                0x000003c0       0x20 ./build/liblwip.a(timeouts.o)
 .debug_aranges
                0x000003e0       0x20 ./build/liblwip.a(udp.o)
 .debug_aranges
                0x00000400       0x20 ./build/liblwip.a(dhcp.o)
 .debug_aranges
                0x00000420       0x20 ./build/liblwip.a(etharp.o)
 .debug_aranges
                0x00000440       0x20 ./build/liblwip.a(icmp.o)
 .debug_aranges
                0x00000460       0x20 ./build/liblwip.a(ip4.o)
 .debug_aranges
                0x00000480       0x20 ./build/liblwip.a(ip4_addr.o)
 .debug_aranges
                0x000004a0       0x20 ./build/liblwip.a(ip4_frag.o)
 .debug_aranges
                0x000004c0       0x20 ./build/liblwip.a(ppp.o)
 .debug_aranges
                0x000004e0       0x20 ./build/liblwip.a(pppos.o)
 .debug_aranges
                0x00000500       0x20 ./build/liblwip.a(upap.o)
 .debug_aranges
                0x00000520       0x20 ./build/liblwip.a(utils.o)
 .debug_aranges
                0x00000540       0x20 ./build/liblwip.a(vj.o)
 .debug_aranges
                0x00000560       0x20 ./build/liblwip.a(ethernet.o)
 .debug_aranges
                0x00000580       0x20 ./build/liblwip.a(api_lib.o)
 .debug_aranges
                0x000005a0       0x20 ./build/liblwip.a(api_msg.o)
 .debug_aranges
                0x000005c0       0x20 ./build/liblwip.a(err.o)
 .debug_aranges
                0x000005e0       0x20 ./build/liblwip.a(netbuf.o)
 .debug_aranges
                0x00000600       0x18 ./build/liblwip.a(ip.o)
 .debug_aranges
                0x00000618       0x20 ./build/liblwip.a(auth.o)
 .debug_aranges
                0x00000638       0x20 ./build/liblwip.a(chap-new.o)
 .debug_aranges
                0x00000658       0x20 ./build/liblwip.a(ipcp.o)
 .debug_aranges
                0x00000678       0x20 ./build/liblwip.a(lcp.o)
 .debug_aranges
                0x00000698       0x20 ./build/liblwip.a(magic.o)
 .debug_aranges
                0x000006b8       0x20 ./build/liblwip.a(md5.o)
 .debug_aranges
                0x000006d8       0x20 ./build/liblwip.a(chap-md5.o)
 .debug_aranges
                0x000006f8       0x20 ./build/liblwip.a(fsm.o)
 .debug_aranges
                0x00000718       0x20 ./build/libfreertos.a(AsyncIO.o)
 .debug_aranges
                0x00000738       0x20 ./build/libfreertos.a(AsyncIOSerial.o)
 .debug_aranges
                0x00000758       0x20 ./build/libfreertos.a(croutine.o)
 .debug_aranges
                0x00000778       0x20 ./build/libfreertos.a(list.o)
 .debug_aranges
                0x00000798       0x20 ./build/libfreertos.a(queue.o)
 .debug_aranges
                0x000007b8       0x20 ./build/libfreertos.a(tasks.o)
 .debug_aranges
                0x000007d8       0x20 ./build/libfreertos.a(port.o)
 .debug_aranges
                0x000007f8       0x20 ./build/libfreertos.a(heap_3.o)
 .debug_aranges
                0x00000818       0x20 ./build/libfreertos.a(crhook.o)
 .debug_aranges
                0x00000838       0x20 ./build/libfreertos.a(ParTest.o)
 .debug_aranges
                0x00000858       0x20 ./build/libfatfs.a(fs_port.o)
 .debug_aranges
                0x00000878       0x20 ./build/libfatfs.a(ff.o)
 .debug_aranges
                0x00000898       0x20 ./build/libfatfs.a(cc950.o)
 .debug_aranges
                0x000008b8       0x20 ./build/libfatfs.a(fattime.o)
 .debug_aranges
                0x000008d8       0x20 ./build/libfatfs.a(diskio.o)
 .debug_aranges
                0x000008f8       0x20 ./build/libfatfs.a(ramdisk.o)

.debug_pubnames
 *(.debug_pubnames)

.debug_info     0x00000000    0x5d038
 *(.debug_info .gnu.linkonce.wi.*)
 .debug_info    0x00000000      0x100 /tmp/ccaAoCVE.o
 .debug_info    0x00000100      0x76a ./build/libshell.a(console.o)
 .debug_info    0x0000086a      0x249 ./build/libshell.a(parser.o)
 .debug_info    0x00000ab3      0x259 ./build/libshell.a(cmd.o)
 .debug_info    0x00000d0c       0x8b ./build/libapp.a(app.o)
 .debug_info    0x00000d97      0x463 ./build/libapp.a(tcpecho.o)
 .debug_info    0x000011fa      0x7f9 ./build/libapp.a(ping.o)
 .debug_info    0x000019f3       0xd6 ./build/libapp.a(cmdnet.o)
 .debug_info    0x00001ac9      0x49a ./build/libapp.a(cmdduktape.o)
 .debug_info    0x00001f63    0x2c86a ./build/libapp.a(duktape.o)
 .debug_info    0x0002e7cd      0xb6e ./build/libapp.a(cmdfs.o)
 .debug_info    0x0002f33b     0x176a ./build/libsys.a(sys.o)
 .debug_info    0x00030aa5      0x8d0 ./build/libsys.a(util.o)
 .debug_info    0x00031375      0x318 ./build/libsys.a(xmodem.o)
 .debug_info    0x0003168d       0xb8 ./build/libsys.a(crc16.o)
 .debug_info    0x00031745      0x4e2 ./build/liblwip.a(network.o)
 .debug_info    0x00031c27      0x869 ./build/liblwip.a(sys_arch.o)
 .debug_info    0x00032490     0x2428 ./build/liblwip.a(sockets.o)
 .debug_info    0x000348b8      0x915 ./build/liblwip.a(tcpip.o)
 .debug_info    0x000351cd      0x2f4 ./build/liblwip.a(def.o)
 .debug_info    0x000354c1      0x576 ./build/liblwip.a(inet_chksum.o)
 .debug_info    0x00035a37       0xa5 ./build/liblwip.a(init.o)
 .debug_info    0x00035adc      0x4a0 ./build/liblwip.a(mem.o)
 .debug_info    0x00035f7c      0x743 ./build/liblwip.a(memp.o)
 .debug_info    0x000366bf      0xa78 ./build/liblwip.a(netif.o)
 .debug_info    0x00037137     0x131b ./build/liblwip.a(pbuf.o)
 .debug_info    0x00038452      0xa0a ./build/liblwip.a(raw.o)
 .debug_info    0x00038e5c     0x1863 ./build/liblwip.a(tcp.o)
 .debug_info    0x0003a6bf      0xfef ./build/liblwip.a(tcp_in.o)
 .debug_info    0x0003b6ae     0x1308 ./build/liblwip.a(tcp_out.o)
 .debug_info    0x0003c9b6      0xae1 ./build/liblwip.a(timeouts.o)
 .debug_info    0x0003d497      0xc40 ./build/liblwip.a(udp.o)
 .debug_info    0x0003e0d7     0x14eb ./build/liblwip.a(dhcp.o)
 .debug_info    0x0003f5c2      0xca7 ./build/liblwip.a(etharp.o)
 .debug_info    0x00040269      0x762 ./build/liblwip.a(icmp.o)
 .debug_info    0x000409cb      0x8a1 ./build/liblwip.a(ip4.o)
 .debug_info    0x0004126c      0x645 ./build/liblwip.a(ip4_addr.o)
 .debug_info    0x000418b1      0xb46 ./build/liblwip.a(ip4_frag.o)
 .debug_info    0x000423f7     0x1be0 ./build/liblwip.a(ppp.o)
 .debug_info    0x00043fd7     0x1ae9 ./build/liblwip.a(pppos.o)
 .debug_info    0x00045ac0     0x16c5 ./build/liblwip.a(upap.o)
 .debug_info    0x00047185      0x640 ./build/liblwip.a(utils.o)
 .debug_info    0x000477c5      0x865 ./build/liblwip.a(vj.o)
 .debug_info    0x0004802a      0x619 ./build/liblwip.a(ethernet.o)
 .debug_info    0x00048643     0x13a7 ./build/liblwip.a(api_lib.o)
 .debug_info    0x000499ea     0x1b45 ./build/liblwip.a(api_msg.o)
 .debug_info    0x0004b52f      0x132 ./build/liblwip.a(err.o)
 .debug_info    0x0004b661      0x484 ./build/liblwip.a(netbuf.o)
 .debug_info    0x0004bae5      0x4a2 ./build/liblwip.a(ip.o)
 .debug_info    0x0004bf87     0x164f ./build/liblwip.a(auth.o)
 .debug_info    0x0004d5d6     0x17ca ./build/liblwip.a(chap-new.o)
 .debug_info    0x0004eda0     0x1b60 ./build/liblwip.a(ipcp.o)
 .debug_info    0x00050900     0x1e57 ./build/liblwip.a(lcp.o)
 .debug_info    0x00052757      0x338 ./build/liblwip.a(magic.o)
 .debug_info    0x00052a8f      0x2f7 ./build/liblwip.a(md5.o)
 .debug_info    0x00052d86     0x1372 ./build/liblwip.a(chap-md5.o)
 .debug_info    0x000540f8     0x1624 ./build/liblwip.a(fsm.o)
 .debug_info    0x0005571c      0x5be ./build/libfreertos.a(AsyncIO.o)
 .debug_info    0x00055cda      0x216 ./build/libfreertos.a(AsyncIOSerial.o)
 .debug_info    0x00055ef0      0x46c ./build/libfreertos.a(croutine.o)
 .debug_info    0x0005635c      0x283 ./build/libfreertos.a(list.o)
 .debug_info    0x000565df      0x8ff ./build/libfreertos.a(queue.o)
 .debug_info    0x00056ede     0x1179 ./build/libfreertos.a(tasks.o)
 .debug_info    0x00058057     0x13c1 ./build/libfreertos.a(port.o)
 .debug_info    0x00059418       0xdc ./build/libfreertos.a(heap_3.o)
 .debug_info    0x000594f4      0x2a0 ./build/libfreertos.a(crhook.o)
 .debug_info    0x00059794       0xf7 ./build/libfreertos.a(ParTest.o)
 .debug_info    0x0005988b      0xd39 ./build/libfatfs.a(fs_port.o)
 .debug_info    0x0005a5c4     0x219c ./build/libfatfs.a(ff.o)
 .debug_info    0x0005c760      0x204 ./build/libfatfs.a(cc950.o)
 .debug_info    0x0005c964      0x1bd ./build/libfatfs.a(fattime.o)
 .debug_info    0x0005cb21      0x2c0 ./build/libfatfs.a(diskio.o)
 .debug_info    0x0005cde1      0x257 ./build/libfatfs.a(ramdisk.o)

.debug_abbrev   0x00000000     0x7ca9
 *(.debug_abbrev)
 .debug_abbrev  0x00000000       0xcb /tmp/ccaAoCVE.o
 .debug_abbrev  0x000000cb      0x1b1 ./build/libshell.a(console.o)
 .debug_abbrev  0x0000027c       0xd0 ./build/libshell.a(parser.o)
 .debug_abbrev  0x0000034c      0x117 ./build/libshell.a(cmd.o)
 .debug_abbrev  0x00000463       0x40 ./build/libapp.a(app.o)
 .debug_abbrev  0x000004a3      0x126 ./build/libapp.a(tcpecho.o)
 .debug_abbrev  0x000005c9      0x18d ./build/libapp.a(ping.o)
 .debug_abbrev  0x00000756       0x7b ./build/libapp.a(cmdnet.o)
 .debug_abbrev  0x000007d1      0x155 ./build/libapp.a(cmdduktape.o)
 .debug_abbrev  0x00000926      0x456 ./build/libapp.a(duktape.o)
 .debug_abbrev  0x00000d7c      0x1c4 ./build/libapp.a(cmdfs.o)
 .debug_abbrev  0x00000f40      0x2fc ./build/libsys.a(sys.o)
 .debug_abbrev  0x0000123c      0x245 ./build/libsys.a(util.o)
 .debug_abbrev  0x00001481      0x10f ./build/libsys.a(xmodem.o)
 .debug_abbrev  0x00001590       0x9a ./build/libsys.a(crc16.o)
 .debug_abbrev  0x0000162a      0x193 ./build/liblwip.a(network.o)
 .debug_abbrev  0x000017bd      0x217 ./build/liblwip.a(sys_arch.o)
 .debug_abbrev  0x000019d4      0x23c ./build/liblwip.a(sockets.o)
 .debug_abbrev  0x00001c10      0x235 ./build/liblwip.a(tcpip.o)
 .debug_abbrev  0x00001e45       0xdc ./build/liblwip.a(def.o)
 .debug_abbrev  0x00001f21      0x14c ./build/liblwip.a(inet_chksum.o)
 .debug_abbrev  0x0000206d       0x5e ./build/liblwip.a(init.o)
 .debug_abbrev  0x000020cb      0x14d ./build/liblwip.a(mem.o)
 .debug_abbrev  0x00002218      0x1d1 ./build/liblwip.a(memp.o)
 .debug_abbrev  0x000023e9      0x251 ./build/liblwip.a(netif.o)
 .debug_abbrev  0x0000263a      0x233 ./build/liblwip.a(pbuf.o)
 .debug_abbrev  0x0000286d      0x230 ./build/liblwip.a(raw.o)
 .debug_abbrev  0x00002a9d      0x2f4 ./build/liblwip.a(tcp.o)
 .debug_abbrev  0x00002d91      0x249 ./build/liblwip.a(tcp_in.o)
 .debug_abbrev  0x00002fda      0x220 ./build/liblwip.a(tcp_out.o)
 .debug_abbrev  0x000031fa      0x252 ./build/liblwip.a(timeouts.o)
 .debug_abbrev  0x0000344c      0x262 ./build/liblwip.a(udp.o)
 .debug_abbrev  0x000036ae      0x263 ./build/liblwip.a(dhcp.o)
 .debug_abbrev  0x00003911      0x22a ./build/liblwip.a(etharp.o)
 .debug_abbrev  0x00003b3b      0x1e3 ./build/liblwip.a(icmp.o)
 .debug_abbrev  0x00003d1e      0x1a4 ./build/liblwip.a(ip4.o)
 .debug_abbrev  0x00003ec2      0x1e4 ./build/liblwip.a(ip4_addr.o)
 .debug_abbrev  0x000040a6      0x224 ./build/liblwip.a(ip4_frag.o)
 .debug_abbrev  0x000042ca      0x33d ./build/liblwip.a(ppp.o)
 .debug_abbrev  0x00004607      0x2f6 ./build/liblwip.a(pppos.o)
 .debug_abbrev  0x000048fd      0x299 ./build/liblwip.a(upap.o)
 .debug_abbrev  0x00004b96      0x187 ./build/liblwip.a(utils.o)
 .debug_abbrev  0x00004d1d      0x1f7 ./build/liblwip.a(vj.o)
 .debug_abbrev  0x00004f14      0x1b9 ./build/liblwip.a(ethernet.o)
 .debug_abbrev  0x000050cd      0x205 ./build/liblwip.a(api_lib.o)
 .debug_abbrev  0x000052d2      0x286 ./build/liblwip.a(api_msg.o)
 .debug_abbrev  0x00005558       0x93 ./build/liblwip.a(err.o)
 .debug_abbrev  0x000055eb      0x10a ./build/liblwip.a(netbuf.o)
 .debug_abbrev  0x000056f5       0xf8 ./build/liblwip.a(ip.o)
 .debug_abbrev  0x000057ed      0x241 ./build/liblwip.a(auth.o)
 .debug_abbrev  0x00005a2e      0x2c2 ./build/liblwip.a(chap-new.o)
 .debug_abbrev  0x00005cf0      0x293 ./build/liblwip.a(ipcp.o)
 .debug_abbrev  0x00005f83      0x2a7 ./build/liblwip.a(lcp.o)
 .debug_abbrev  0x0000622a      0x169 ./build/liblwip.a(magic.o)
 .debug_abbrev  0x00006393      0x16d ./build/liblwip.a(md5.o)
 .debug_abbrev  0x00006500      0x229 ./build/liblwip.a(chap-md5.o)
 .debug_abbrev  0x00006729      0x286 ./build/liblwip.a(fsm.o)
 .debug_abbrev  0x000069af      0x151 ./build/libfreertos.a(AsyncIO.o)
 .debug_abbrev  0x00006b00       0xd0 ./build/libfreertos.a(AsyncIOSerial.o)
 .debug_abbrev  0x00006bd0      0x157 ./build/libfreertos.a(croutine.o)
 .debug_abbrev  0x00006d27       0xbc ./build/libfreertos.a(list.o)
 .debug_abbrev  0x00006de3      0x16e ./build/libfreertos.a(queue.o)
 .debug_abbrev  0x00006f51      0x1aa ./build/libfreertos.a(tasks.o)
 .debug_abbrev  0x000070fb      0x2ef ./build/libfreertos.a(port.o)
 .debug_abbrev  0x000073ea       0x9f ./build/libfreertos.a(heap_3.o)
 .debug_abbrev  0x00007489       0xf8 ./build/libfreertos.a(crhook.o)
 .debug_abbrev  0x00007581       0x81 ./build/libfreertos.a(ParTest.o)
 .debug_abbrev  0x00007602      0x1f7 ./build/libfatfs.a(fs_port.o)
 .debug_abbrev  0x000077f9      0x185 ./build/libfatfs.a(ff.o)
 .debug_abbrev  0x0000797e       0xba ./build/libfatfs.a(cc950.o)
 .debug_abbrev  0x00007a38       0xae ./build/libfatfs.a(fattime.o)
 .debug_abbrev  0x00007ae6       0xcc ./build/libfatfs.a(diskio.o)
 .debug_abbrev  0x00007bb2       0xf7 ./build/libfatfs.a(ramdisk.o)

.debug_line     0x00000000    0x17b62
 *(.debug_line .debug_line.* .debug_line_end)
 .debug_line    0x00000000       0x7f /tmp/ccaAoCVE.o
 .debug_line    0x0000007f      0x220 ./build/libshell.a(console.o)
 .debug_line    0x0000029f       0xc0 ./build/libshell.a(parser.o)
 .debug_line    0x0000035f       0x63 ./build/libshell.a(cmd.o)
 .debug_line    0x000003c2       0x37 ./build/libapp.a(app.o)
 .debug_line    0x000003f9      0x153 ./build/libapp.a(tcpecho.o)
 .debug_line    0x0000054c      0x2b2 ./build/libapp.a(ping.o)
 .debug_line    0x000007fe       0x3b ./build/libapp.a(cmdnet.o)
 .debug_line    0x00000839      0x143 ./build/libapp.a(cmdduktape.o)
 .debug_line    0x0000097c     0x98d3 ./build/libapp.a(duktape.o)
 .debug_line    0x0000a24f      0x33c ./build/libapp.a(cmdfs.o)
 .debug_line    0x0000a58b      0x3e1 ./build/libsys.a(sys.o)
 .debug_line    0x0000a96c      0x3a5 ./build/libsys.a(util.o)
 .debug_line    0x0000ad11      0x1b0 ./build/libsys.a(xmodem.o)
 .debug_line    0x0000aec1       0x4f ./build/libsys.a(crc16.o)
 .debug_line    0x0000af10      0x150 ./build/liblwip.a(network.o)
 .debug_line    0x0000b060      0x272 ./build/liblwip.a(sys_arch.o)
 .debug_line    0x0000b2d2      0xcb2 ./build/liblwip.a(sockets.o)
 .debug_line    0x0000bf84      0x20b ./build/liblwip.a(tcpip.o)
 .debug_line    0x0000c18f      0x124 ./build/liblwip.a(def.o)
 .debug_line    0x0000c2b3      0x177 ./build/liblwip.a(inet_chksum.o)
 .debug_line    0x0000c42a       0x90 ./build/liblwip.a(init.o)
 .debug_line    0x0000c4ba      0x28b ./build/liblwip.a(mem.o)
 .debug_line    0x0000c745      0x18d ./build/liblwip.a(memp.o)
 .debug_line    0x0000c8d2      0x410 ./build/liblwip.a(netif.o)
 .debug_line    0x0000cce2      0x5b8 ./build/liblwip.a(pbuf.o)
 .debug_line    0x0000d29a      0x285 ./build/liblwip.a(raw.o)
 .debug_line    0x0000d51f      0x7e2 ./build/liblwip.a(tcp.o)
 .debug_line    0x0000dd01      0x951 ./build/liblwip.a(tcp_in.o)
 .debug_line    0x0000e652      0x68a ./build/liblwip.a(tcp_out.o)
 .debug_line    0x0000ecdc      0x2a0 ./build/liblwip.a(timeouts.o)
 .debug_line    0x0000ef7c      0x37e ./build/liblwip.a(udp.o)
 .debug_line    0x0000f2fa      0x7f6 ./build/liblwip.a(dhcp.o)
 .debug_line    0x0000faf0      0x455 ./build/liblwip.a(etharp.o)
 .debug_line    0x0000ff45      0x19b ./build/liblwip.a(icmp.o)
 .debug_line    0x000100e0      0x289 ./build/liblwip.a(ip4.o)
 .debug_line    0x00010369      0x21f ./build/liblwip.a(ip4_addr.o)
 .debug_line    0x00010588      0x37c ./build/liblwip.a(ip4_frag.o)
 .debug_line    0x00010904      0x4a0 ./build/liblwip.a(ppp.o)
 .debug_line    0x00010da4      0x425 ./build/liblwip.a(pppos.o)
 .debug_line    0x000111c9      0x318 ./build/liblwip.a(upap.o)
 .debug_line    0x000114e1      0x3bf ./build/liblwip.a(utils.o)
 .debug_line    0x000118a0      0x3c0 ./build/liblwip.a(vj.o)
 .debug_line    0x00011c60      0x15f ./build/liblwip.a(ethernet.o)
 .debug_line    0x00011dbf      0x471 ./build/liblwip.a(api_lib.o)
 .debug_line    0x00012230      0x971 ./build/liblwip.a(api_msg.o)
 .debug_line    0x00012ba1       0x9a ./build/liblwip.a(err.o)
 .debug_line    0x00012c3b      0x163 ./build/liblwip.a(netbuf.o)
 .debug_line    0x00012d9e       0xda ./build/liblwip.a(ip.o)
 .debug_line    0x00012e78      0x321 ./build/liblwip.a(auth.o)
 .debug_line    0x00013199      0x336 ./build/liblwip.a(chap-new.o)
 .debug_line    0x000134cf      0x74d ./build/liblwip.a(ipcp.o)
 .debug_line    0x00013c1c      0xb4a ./build/liblwip.a(lcp.o)
 .debug_line    0x00014766      0x155 ./build/liblwip.a(magic.o)
 .debug_line    0x000148bb      0x1f7 ./build/liblwip.a(md5.o)
 .debug_line    0x00014ab2      0x210 ./build/liblwip.a(chap-md5.o)
 .debug_line    0x00014cc2      0x411 ./build/liblwip.a(fsm.o)
 .debug_line    0x000150d3      0x15d ./build/libfreertos.a(AsyncIO.o)
 .debug_line    0x00015230       0xec ./build/libfreertos.a(AsyncIOSerial.o)
 .debug_line    0x0001531c      0x1a6 ./build/libfreertos.a(croutine.o)
 .debug_line    0x000154c2       0xbb ./build/libfreertos.a(list.o)
 .debug_line    0x0001557d      0x265 ./build/libfreertos.a(queue.o)
 .debug_line    0x000157e2      0x5b3 ./build/libfreertos.a(tasks.o)
 .debug_line    0x00015d95      0x383 ./build/libfreertos.a(port.o)
 .debug_line    0x00016118       0xa2 ./build/libfreertos.a(heap_3.o)
 .debug_line    0x000161ba      0x144 ./build/libfreertos.a(crhook.o)
 .debug_line    0x000162fe       0x5c ./build/libfreertos.a(ParTest.o)
 .debug_line    0x0001635a      0x2c1 ./build/libfatfs.a(fs_port.o)
 .debug_line    0x0001661b     0x127f ./build/libfatfs.a(ff.o)
 .debug_line    0x0001789a       0xd0 ./build/libfatfs.a(cc950.o)
 .debug_line    0x0001796a       0xb2 ./build/libfatfs.a(fattime.o)
 .debug_line    0x00017a1c       0x8f ./build/libfatfs.a(diskio.o)
 .debug_line    0x00017aab       0xb7 ./build/libfatfs.a(ramdisk.o)

.debug_frame    0x00000000    0x1105c
 *(.debug_frame)
 .debug_frame   0x00000000       0x6c /tmp/ccaAoCVE.o
 .debug_frame   0x0000006c       0xd8 ./build/libshell.a(console.o)
 .debug_frame   0x00000144       0x74 ./build/libshell.a(parser.o)
 .debug_frame   0x000001b8       0x90 ./build/libshell.a(cmd.o)
 .debug_frame   0x00000248       0x2c ./build/libapp.a(app.o)
 .debug_frame   0x00000274       0x98 ./build/libapp.a(tcpecho.o)
 .debug_frame   0x0000030c       0xb8 ./build/libapp.a(ping.o)
 .debug_frame   0x000003c4       0x30 ./build/libapp.a(cmdnet.o)
 .debug_frame   0x000003f4       0x94 ./build/libapp.a(cmdduktape.o)
 .debug_frame   0x00000488     0x9a98 ./build/libapp.a(duktape.o)
 .debug_frame   0x00009f20      0x1e4 ./build/libapp.a(cmdfs.o)
 .debug_frame   0x0000a104      0x19c ./build/libsys.a(sys.o)
 .debug_frame   0x0000a2a0      0x238 ./build/libsys.a(util.o)
 .debug_frame   0x0000a4d8       0x94 ./build/libsys.a(xmodem.o)
 .debug_frame   0x0000a56c       0x38 ./build/libsys.a(crc16.o)
 .debug_frame   0x0000a5a4       0x70 ./build/liblwip.a(network.o)
 .debug_frame   0x0000a614      0x360 ./build/liblwip.a(sys_arch.o)
 .debug_frame   0x0000a974      0x458 ./build/liblwip.a(sockets.o)
 .debug_frame   0x0000adcc      0x1ac ./build/liblwip.a(tcpip.o)
 .debug_frame   0x0000af78       0xd0 ./build/liblwip.a(def.o)
 .debug_frame   0x0000b048      0x130 ./build/liblwip.a(inet_chksum.o)
 .debug_frame   0x0000b178       0x30 ./build/liblwip.a(init.o)
 .debug_frame   0x0000b1a8       0xdc ./build/liblwip.a(mem.o)
 .debug_frame   0x0000b284      0x110 ./build/liblwip.a(memp.o)
 .debug_frame   0x0000b394      0x2e0 ./build/liblwip.a(netif.o)
 .debug_frame   0x0000b674      0x3a4 ./build/liblwip.a(pbuf.o)
 .debug_frame   0x0000ba18      0x1b0 ./build/liblwip.a(raw.o)
 .debug_frame   0x0000bbc8      0x5bc ./build/liblwip.a(tcp.o)
 .debug_frame   0x0000c184      0x14c ./build/liblwip.a(tcp_in.o)
 .debug_frame   0x0000c2d0      0x244 ./build/liblwip.a(tcp_out.o)
 .debug_frame   0x0000c514      0x14c ./build/liblwip.a(timeouts.o)
 .debug_frame   0x0000c660      0x218 ./build/liblwip.a(udp.o)
 .debug_frame   0x0000c878      0x4bc ./build/liblwip.a(dhcp.o)
 .debug_frame   0x0000cd34      0x1ec ./build/liblwip.a(etharp.o)
 .debug_frame   0x0000cf20       0x94 ./build/liblwip.a(icmp.o)
 .debug_frame   0x0000cfb4       0xb8 ./build/liblwip.a(ip4.o)
 .debug_frame   0x0000d06c       0xd4 ./build/liblwip.a(ip4_addr.o)
 .debug_frame   0x0000d140      0x17c ./build/liblwip.a(ip4_frag.o)
 .debug_frame   0x0000d2bc      0x3d4 ./build/liblwip.a(ppp.o)
 .debug_frame   0x0000d690      0x21c ./build/liblwip.a(pppos.o)
 .debug_frame   0x0000d8ac      0x1d8 ./build/liblwip.a(upap.o)
 .debug_frame   0x0000da84      0x244 ./build/liblwip.a(utils.o)
 .debug_frame   0x0000dcc8       0xbc ./build/liblwip.a(vj.o)
 .debug_frame   0x0000dd84       0x54 ./build/liblwip.a(ethernet.o)
 .debug_frame   0x0000ddd8      0x254 ./build/liblwip.a(api_lib.o)
 .debug_frame   0x0000e02c      0x384 ./build/liblwip.a(api_msg.o)
 .debug_frame   0x0000e3b0       0x50 ./build/liblwip.a(err.o)
 .debug_frame   0x0000e400      0x130 ./build/liblwip.a(netbuf.o)
 .debug_frame   0x0000e530      0x234 ./build/liblwip.a(auth.o)
 .debug_frame   0x0000e764      0x1b8 ./build/liblwip.a(chap-new.o)
 .debug_frame   0x0000e91c      0x26c ./build/liblwip.a(ipcp.o)
 .debug_frame   0x0000eb88      0x3cc ./build/liblwip.a(lcp.o)
 .debug_frame   0x0000ef54       0xc8 ./build/liblwip.a(magic.o)
 .debug_frame   0x0000f01c       0xb8 ./build/liblwip.a(md5.o)
 .debug_frame   0x0000f0d4       0x70 ./build/liblwip.a(chap-md5.o)
 .debug_frame   0x0000f144      0x248 ./build/liblwip.a(fsm.o)
 .debug_frame   0x0000f38c       0x90 ./build/libfreertos.a(AsyncIO.o)
 .debug_frame   0x0000f41c       0x50 ./build/libfreertos.a(AsyncIOSerial.o)
 .debug_frame   0x0000f46c       0xf0 ./build/libfreertos.a(croutine.o)
 .debug_frame   0x0000f55c       0xb0 ./build/libfreertos.a(list.o)
 .debug_frame   0x0000f60c      0x2fc ./build/libfreertos.a(queue.o)
 .debug_frame   0x0000f908      0x5a4 ./build/libfreertos.a(tasks.o)
 .debug_frame   0x0000feac      0x3a4 ./build/libfreertos.a(port.o)
 .debug_frame   0x00010250       0x50 ./build/libfreertos.a(heap_3.o)
 .debug_frame   0x000102a0       0x90 ./build/libfreertos.a(crhook.o)
 .debug_frame   0x00010330       0x70 ./build/libfreertos.a(ParTest.o)
 .debug_frame   0x000103a0      0x2f4 ./build/libfatfs.a(fs_port.o)
 .debug_frame   0x00010694      0x7ec ./build/libfatfs.a(ff.o)
 .debug_frame   0x00010e80       0x50 ./build/libfatfs.a(cc950.o)
 .debug_frame   0x00010ed0       0x30 ./build/libfatfs.a(fattime.o)
 .debug_frame   0x00010f00       0xb0 ./build/libfatfs.a(diskio.o)
 .debug_frame   0x00010fb0       0xac ./build/libfatfs.a(ramdisk.o)

.debug_str      0x00000000    0x147c3
 *(.debug_str)
 .debug_str     0x00000000       0xfd /tmp/ccaAoCVE.o
                                0x147 (size before relaxing)
 .debug_str     0x000000fd      0x361 ./build/libshell.a(console.o)
                                0x4ca (size before relaxing)
 .debug_str     0x0000045e       0x73 ./build/libshell.a(parser.o)
                                0x199 (size before relaxing)
 .debug_str     0x000004d1       0x61 ./build/libshell.a(cmd.o)
                                0x1a3 (size before relaxing)
 .debug_str     0x00000532       0x2b ./build/libapp.a(app.o)
                                0x106 (size before relaxing)
 .debug_str     0x0000055d      0x198 ./build/libapp.a(tcpecho.o)
                                0x301 (size before relaxing)
 .debug_str     0x000006f5      0x355 ./build/libapp.a(ping.o)
                                0x5db (size before relaxing)
 .debug_str     0x00000a4a       0x11 ./build/libapp.a(cmdnet.o)
                                0x112 (size before relaxing)
 .debug_str     0x00000a5b       0x8e ./build/libapp.a(cmdduktape.o)
                                0x359 (size before relaxing)
 .debug_str     0x00000ae9     0xb388 ./build/libapp.a(duktape.o)
                               0xbe78 (size before relaxing)
 .debug_str     0x0000be71      0x31b ./build/libapp.a(cmdfs.o)
                                0x492 (size before relaxing)
 .debug_str     0x0000c18c      0x861 ./build/libsys.a(sys.o)
                                0xd8d (size before relaxing)
 .debug_str     0x0000c9ed      0x133 ./build/libsys.a(util.o)
                                0x48e (size before relaxing)
 .debug_str     0x0000cb20       0x8f ./build/libsys.a(xmodem.o)
                                0x19e (size before relaxing)
 .debug_str     0x0000cbaf       0x1d ./build/libsys.a(crc16.o)
                                 0xa6 (size before relaxing)
 .debug_str     0x0000cbcc       0x85 ./build/liblwip.a(network.o)
                                0x35b (size before relaxing)
 .debug_str     0x0000cc51      0x279 ./build/liblwip.a(sys_arch.o)
                                0x5bb (size before relaxing)
 .debug_str     0x0000ceca      0x8c0 ./build/liblwip.a(sockets.o)
                                0xef4 (size before relaxing)
 .debug_str     0x0000d78a      0x1d1 ./build/liblwip.a(tcpip.o)
                                0x6bf (size before relaxing)
 .debug_str     0x0000d95b       0x8e ./build/liblwip.a(def.o)
                                0x1db (size before relaxing)
 .debug_str     0x0000d9e9      0x10b ./build/liblwip.a(inet_chksum.o)
                                0x28e (size before relaxing)
 .debug_str     0x0000daf4       0x22 ./build/liblwip.a(init.o)
                                0x124 (size before relaxing)
 .debug_str     0x0000db16       0x84 ./build/liblwip.a(mem.o)
                                0x388 (size before relaxing)
 .debug_str     0x0000db9a      0x3e1 ./build/liblwip.a(memp.o)
                                0x699 (size before relaxing)
 .debug_str     0x0000df7b      0x20b ./build/liblwip.a(netif.o)
                                0x6d0 (size before relaxing)
 .debug_str     0x0000e186      0x33a ./build/liblwip.a(pbuf.o)
                                0xa78 (size before relaxing)
 .debug_str     0x0000e4c0      0x18a ./build/liblwip.a(raw.o)
                                0x6e5 (size before relaxing)
 .debug_str     0x0000e64a      0x47f ./build/liblwip.a(tcp.o)
                                0xc66 (size before relaxing)
 .debug_str     0x0000eac9      0x188 ./build/liblwip.a(tcp_in.o)
                                0xa37 (size before relaxing)
 .debug_str     0x0000ec51      0x1de ./build/liblwip.a(tcp_out.o)
                                0x966 (size before relaxing)
 .debug_str     0x0000ee2f      0x16e ./build/liblwip.a(timeouts.o)
                                0x7ca (size before relaxing)
 .debug_str     0x0000ef9d      0x1b7 ./build/liblwip.a(udp.o)
                                0x7d6 (size before relaxing)
 .debug_str     0x0000f154      0x6bc ./build/liblwip.a(dhcp.o)
                                0xd3c (size before relaxing)
 .debug_str     0x0000f810      0x437 ./build/liblwip.a(etharp.o)
                                0x900 (size before relaxing)
 .debug_str     0x0000fc47       0xa6 ./build/liblwip.a(icmp.o)
                                0x566 (size before relaxing)
 .debug_str     0x0000fced       0xa6 ./build/liblwip.a(ip4.o)
                                0x660 (size before relaxing)
 .debug_str     0x0000fd93       0x93 ./build/liblwip.a(ip4_addr.o)
                                0x451 (size before relaxing)
 .debug_str     0x0000fe26      0x270 ./build/liblwip.a(ip4_frag.o)
                                0x801 (size before relaxing)
 .debug_str     0x00010096      0x271 ./build/liblwip.a(ppp.o)
                                0xf93 (size before relaxing)
 .debug_str     0x00010307      0x25e ./build/liblwip.a(pppos.o)
                                0xf5e (size before relaxing)
 .debug_str     0x00010565      0x12f ./build/liblwip.a(upap.o)
                                0xd57 (size before relaxing)
 .debug_str     0x00010694       0xde ./build/liblwip.a(utils.o)
                                0x2d2 (size before relaxing)
 .debug_str     0x00010772       0xd2 ./build/liblwip.a(vj.o)
                                0x452 (size before relaxing)
 .debug_str     0x00010844       0x88 ./build/liblwip.a(ethernet.o)
                                0x5c0 (size before relaxing)
 .debug_str     0x000108cc      0x1d2 ./build/liblwip.a(api_lib.o)
                                0xa85 (size before relaxing)
 .debug_str     0x00010a9e      0x2da ./build/liblwip.a(api_msg.o)
                                0xe20 (size before relaxing)
 .debug_str     0x00010d78       0x4d ./build/liblwip.a(err.o)
                                0x152 (size before relaxing)
 .debug_str     0x00010dc5       0x88 ./build/liblwip.a(netbuf.o)
                                0x3f2 (size before relaxing)
 .debug_str     0x00010e4d       0x16 ./build/liblwip.a(ip.o)
                                0x46d (size before relaxing)
 .debug_str     0x00010e63      0x14a ./build/liblwip.a(auth.o)
                                0xc20 (size before relaxing)
 .debug_str     0x00010fad      0x141 ./build/liblwip.a(chap-new.o)
                                0xd95 (size before relaxing)
 .debug_str     0x000110ee      0x18e ./build/liblwip.a(ipcp.o)
                                0xd69 (size before relaxing)
 .debug_str     0x0001127c      0x1ed ./build/liblwip.a(lcp.o)
                                0xe79 (size before relaxing)
 .debug_str     0x00011469       0xcf ./build/liblwip.a(magic.o)
                                0x359 (size before relaxing)
 .debug_str     0x00011538       0x68 ./build/liblwip.a(md5.o)
                                0x1ac (size before relaxing)
 .debug_str     0x000115a0       0x8b ./build/liblwip.a(chap-md5.o)
                                0xc76 (size before relaxing)
 .debug_str     0x0001162b       0xf9 ./build/liblwip.a(fsm.o)
                                0xbe7 (size before relaxing)
 .debug_str     0x00011724      0x32f ./build/libfreertos.a(AsyncIO.o)
                                0x44b (size before relaxing)
 .debug_str     0x00011a53       0xaf ./build/libfreertos.a(AsyncIOSerial.o)
                                0x255 (size before relaxing)
 .debug_str     0x00011b02      0x339 ./build/libfreertos.a(croutine.o)
                                0x41b (size before relaxing)
 .debug_str     0x00011e3b       0xa1 ./build/libfreertos.a(list.o)
                                0x24c (size before relaxing)
 .debug_str     0x00011edc      0x3ff ./build/libfreertos.a(queue.o)
                                0x5d1 (size before relaxing)
 .debug_str     0x000122db      0x829 ./build/libfreertos.a(tasks.o)
                                0xaf9 (size before relaxing)
 .debug_str     0x00012b04     0x153f ./build/libfreertos.a(port.o)
                               0x18c2 (size before relaxing)
 .debug_str     0x00014043       0x58 ./build/libfreertos.a(heap_3.o)
                                0x161 (size before relaxing)
 .debug_str     0x0001409b       0xf9 ./build/libfreertos.a(crhook.o)
                                0x2c6 (size before relaxing)
 .debug_str     0x00014194       0x70 ./build/libfreertos.a(ParTest.o)
                                0x13e (size before relaxing)
 .debug_str     0x00014204      0x170 ./build/libfatfs.a(fs_port.o)
                                0x53b (size before relaxing)
 .debug_str     0x00014374      0x359 ./build/libfatfs.a(ff.o)
                                0x6fc (size before relaxing)
 .debug_str     0x000146cd       0x46 ./build/libfatfs.a(cc950.o)
                                0x130 (size before relaxing)
 .debug_str     0x00014713       0x26 ./build/libfatfs.a(fattime.o)
                                0x1bf (size before relaxing)
 .debug_str     0x00014739       0x67 ./build/libfatfs.a(diskio.o)
                                0x1d4 (size before relaxing)
 .debug_str     0x000147a0       0x23 ./build/libfatfs.a(ramdisk.o)
                                0x1e4 (size before relaxing)

.debug_loc
 *(.debug_loc)

.debug_macinfo
 *(.debug_macinfo)

.debug_weaknames
 *(.debug_weaknames)

.debug_funcnames
 *(.debug_funcnames)

.debug_typenames
 *(.debug_typenames)

.debug_varnames
 *(.debug_varnames)

.debug_pubtypes
 *(.debug_pubtypes)

.debug_ranges   0x00000000      0x2b8
 *(.debug_ranges)
 .debug_ranges  0x00000000      0x288 ./build/libapp.a(duktape.o)
 .debug_ranges  0x00000288       0x18 ./build/liblwip.a(sockets.o)
 .debug_ranges  0x000002a0       0x18 ./build/liblwip.a(tcp_in.o)

.debug_macro
 *(.debug_macro)

.gnu.attributes
 *(.gnu.attributes)

.note.gnu.arm.ident
 *(.note.gnu.arm.ident)

/DISCARD/
 *(.note.GNU-stack)
 *(.gnu_debuglink)
 *(.gnu.lto_*)
OUTPUT(u2w elf32-littlearm)
